Archive member included because of file (symbol)

c:/MWSDK/Wks_TWELITE/Current-Test/../../TWENET/L1200/lib/libTWENET_BLUE.a(ToCoNet_event.o)
                              objs_BLUE/Main.o (symbol from plugin) (PRSEV_u8Register)
c:/MWSDK/Wks_TWELITE/Current-Test/../../TWENET/L1200/lib/libTWENET_BLUE.a(ToCoNet_main.o)
                              ToCoNet_event.o (symbol from plugin) (u32TickCount_ms)
c:/MWSDK/Wks_TWELITE/Current-Test/../../TWENET/L1200/lib/libTWENET_BLUE.a(ToCoNet_utils.o)
                              ToCoNet_main.o (symbol from plugin) (ToCoNet_u32GetVersion)
c:/MWSDK/Wks_TWELITE/Current-Test/../../TWENET/L1200/lib/libTWENET_BLUE.a(ToCoNet_mod_Tx.o)
                              objs_BLUE/Main.o (symbol from plugin) (ToCoNet_vReg_mod_Tx_Standard)
c:/MWSDK/Wks_TWELITE/Current-Test/../../TWENET/L1200/lib/libTWENET_BLUE.a(ToCoNet_mod_TxRxQueue.o)
                              objs_BLUE/Main.o (symbol from plugin) (ToCoNet_vReg_mod_TxRxQueueMid)
c:/MWSDK/Wks_TWELITE/Current-Test/../../TWENET/L1200/lib/libTWENET_BLUE.a(ToCoNet_mod_Nwk_Common.o)
                              ToCoNet_main.o (symbol from plugin) (ToCoNet_vRxProc_Mod)
c:/MWSDK/Wks_TWELITE/Current-Test/../../TWENET/L1200/lib/libTWENET_BLUE.a(ToCoNet_mod_Channel_Mgr.o)
                              ToCoNet_mod_Tx.o (symbol from plugin) (ToCoNet_ChMgr_bCh_OnTx)
c:/MWSDK/Wks_TWELITE/Current-Test/../../TWENET/L1200/lib/libTWENET_BLUE.a(Version.o)
                              ToCoNet_utils.o (symbol from plugin) (au8ToCoNetVersionInfo)
c:/MWSDK/Wks_TWELITE/Current-Test/../../TWENET/L1200/lib/libTWENET_BLUE.a(AppQueueApi_ToCoNet.o)
                              ToCoNet_main.o (symbol from plugin) (u32AppQApiInitInt_PATCH)
c:/MWSDK/Wks_TWELITE/Current-Test/../../TWENET/L1200/lib/libTWENEText_BLUE.a(AppStart.o)
                              (AppColdStart)
c:/MWSDK/Wks_TWELITE/Current-Test/../../TWENET/L1200/lib/libTWENEText_BLUE.a(getMacAddr.o)
                              ToCoNet_main.o (symbol from plugin) (ToCoNet_u32GetSerialOnBoot)
c:/MWSDK/Wks_TWELITE/Current-Test/../../TWENET/L1200/lib/libTWENEText_BLUE.a(mac.o)
                              ToCoNet_main.o (symbol from plugin) (Mac_vInit)
c:/MWSDK/Wks_TWELITE/Current-Test/../../TWENET/L1200/lib/libTWENEText_BLUE.a(AES_CCM.o)
                              AppStart.o (symbol from plugin) (bAES_CCM_KeyReg)
c:/MWSDK/Wks_TWELITE/Current-Test/../../TWENET/L1200/lib/libTWENEText_BLUE.a(no_ack_handler.o)
                              AppStart.o (symbol from plugin) (vInstallNoAckHandler)
c:/MWSDK/Wks_TWELITE/Current-Test/../../TWENET/L1200/lib/libTWENEText_BLUE.a(Version.o)
                              ToCoNet_utils.o (symbol from plugin) (au8ToCoNetExtVersionInfo)
c:/MWSDK/Wks_TWELITE/Current-Test/../../TWENET/L1200/lib/libTWENETutils_BLUE.a(serial.o)
                              objs_BLUE/Main.o (symbol from plugin) (SERIAL_vInit)
c:/MWSDK/Wks_TWELITE/Current-Test/../../TWENET/L1200/lib/libTWENETutils_BLUE.a(uart.o)
                              serial.o (symbol from plugin) (UART_vInit)
c:/MWSDK/Wks_TWELITE/Current-Test/../../TWENET/L1200/lib/libTWENETutils_BLUE.a(ByteQueue.o)
                              ToCoNet_main.o (symbol from plugin) (QUEUE__vInit)
c:/MWSDK/Wks_TWELITE/Current-Test/../../TWENET/L1200/lib/libTWENETutils_BLUE.a(ccitt8.o)
                              AppStart.o (symbol from plugin) (u8CCITT8)
c:/MWSDK/Wks_TWELITE/Current-Test/../../TWENET/L1200/lib/libTWENETutils_BLUE.a(fprintf.o)
                              objs_BLUE/Main.o (symbol from plugin) (vfPrintf)
c:/MWSDK/Wks_TWELITE/Current-Test/../../TWENET/L1200/lib/libTWENETutils_BLUE.a(sprintf.o)
                              objs_BLUE/Main.o (symbol from plugin) (SPRINTF_vInit128)
c:/MWSDK/Wks_TWELITE/Current-Test/../../TWENET/L1200/lib/libTWENETutils_BLUE.a(utils.o)
                              ToCoNet_main.o (symbol from plugin) (vTimerConfig)
c:/MWSDK/Wks_TWELITE/Current-Test/../../TWENET/L1200/lib/libTWENETutils_BLUE.a(ccm.o)
                              AES_CCM.o (symbol from plugin) (ccm_init_and_key)
c:/MWSDK/Wks_TWELITE/Current-Test/../../TWENET/L1200/lib/libTWENETutils_BLUE.a(Version.o)
                              ToCoNet_utils.o (symbol from plugin) (au8ToCoNetUtilsVersionInfo)
c:/MWSDK/Wks_TWELITE/Current-Test/../../TWENET/L1200/lib/libTWENETutils_BLUE.a(aescrypt.o)
                              ccm.o (symbol from plugin) (aes_encrypt)
c:/MWSDK/Wks_TWELITE/Current-Test/../../TWENET/L1200/lib/libTWENETutils_BLUE.a(aeskey.o)
                              ccm.o (symbol from plugin) (aes_encrypt_key)
c:/MWSDK/Wks_TWELITE/Current-Test/../../TWENET/L1200/lib/libTWENETutils_BLUE.a(aestab.o)
                              aeskey.o (symbol from plugin) (t_im)
c:/MWSDK/ChipLib/SW4063V1416/Components/Library\libAppApi_JN516x.a(AppApi.o)
                              (pvAppApiDefGetMacHandle)
c:/MWSDK/ChipLib/SW4063V1416/Components/Library\libAppApi_JN516x.a(AppApiSleep.o)
                              (vAppApiDefSaveMacSettings)
c:/MWSDK/ChipLib/SW4063V1416/Components/Library\libMAC_JN516x.a(mac_main.o)
                              AppApi.o (symbol from plugin) (MAC_pvCtor)
c:/MWSDK/ChipLib/SW4063V1416/Components/Library\libMAC_JN516x.a(mac_mcps.o)
                              AppApi.o (symbol from plugin) (MAC_vHandleMcpsReqRsp)
c:/MWSDK/ChipLib/SW4063V1416/Components/Library\libMAC_JN516x.a(mac_mlme.o)
                              AppApi.o (symbol from plugin) (MAC_vHandleMlmeReqRsp)
c:/MWSDK/ChipLib/SW4063V1416/Components/Library\libMAC_JN516x.a(mac_pib.o)
                              AppStart.o (symbol from plugin) (MAC_psPibGetHandle)
c:/MWSDK/ChipLib/SW4063V1416/Components/Library\libMAC_JN516x.a(mac_pib_mlme.o)
                              mac_main.o (symbol from plugin) (mac_vPibSetDefaults)
c:/MWSDK/ChipLib/SW4063V1416/Components/Library\libMAC_JN516x.a(mac_pmic.o)
                              mac_main.o (symbol from plugin) (vPMICreset)
c:/MWSDK/ChipLib/SW4063V1416/Components/Library\libMAC_JN516x.a(mac_ind.o)
                              AppApi.o (symbol from plugin) (MAC_vRegisterMlmeDcfmIndCallbacks)
c:/MWSDK/ChipLib/SW4063V1416/Components/Library\libMAC_JN516x.a(mac_scan.o)
                              mac_main.o (symbol from plugin) (mac_eScanInit)
c:/MWSDK/ChipLib/SW4063V1416/Components/Library\libMAC_JN516x.a(mac_lp.o)
                              mac_pmic.o (symbol from plugin) (g_sLP)
c:/MWSDK/ChipLib/SW4063V1416/Components/Library\libMAC_JN516x.a(MCPS.o)
                              mac_mcps.o (symbol from plugin) (vTAM_MCPSdataRequest)
c:/MWSDK/ChipLib/SW4063V1416/Components/Library\libMAC_JN516x.a(phy_pib.o)
                              AppApi.o (symbol from plugin) (phy_ePibGet)
c:/MWSDK/ChipLib/SW4063V1416/Components/Library\libMAC_JN516x.a(TAM.o)
                              MCPS.o (symbol from plugin) (bTAMinPAN)
c:/MWSDK/ChipLib/SW4063V1416/Components/Library\libMAC_JN516x.a(TAMCO.o)
                              TAM.o (symbol from plugin) (vTAMCOsetCoordinator)
c:/MWSDK/ChipLib/SW4063V1416/Components/Library\libMAC_JN516x.a(TAMDE.o)
                              TAM.o (symbol from plugin) (vTAMDEdetermineNullState)
c:/MWSDK/ChipLib/SW4063V1416/Components/Library\libMAC_JN516x.a(TAM_MEM.o)
                              TAM.o (symbol from plugin) (vMEMreset)
c:/MWSDK/ChipLib/SW4063V1416/Components/Library\libMAC_JN516x.a(TAM_MLME.o)
                              mac_scan.o (symbol from plugin) (vMLMEbeaconNotify)
c:/MWSDK/ChipLib/SW4063V1416/Components/Library\libMAC_JN516x.a(TAM_TAH.o)
                              TAMCO.o (symbol from plugin) (vTAHsetCutOff)
c:/MWSDK/ChipLib/SW4063V1416/Components/Library\libMAC_JN516x.a(TAM_TAI.o)
                              TAM.o (symbol from plugin) (vTAIsetCapTime)
c:/MWSDK/ChipLib/SW4063V1416/Components/Library\libMAC_JN516x.a(TAM_TAT.o)
                              TAMDE.o (symbol from plugin) (vTATstartReceiveAt)
c:/MWSDK/ChipLib/SW4063V1416/Components/Library\libMAC_JN516x.a(TAMcommon.o)
                              mac_scan.o (symbol from plugin) (bTACassessBeaconForPayload)
c:/MWSDK/ChipLib/SW4063V1416/Components/Library\libMAC_JN516x.a(TAMevent.o)
                              mac_lp.o (symbol from plugin) (vTAMinsertEvent)
c:/MWSDK/ChipLib/SW4063V1416/Components/Library\libMAC_JN516x.a(TAMqueue.o)
                              TAMcommon.o (symbol from plugin) (vTAQaddToFifo)
c:/MWSDK/ChipLib/SW4063V1416/Components/Library\libMAC_JN516x.a(TAMrxEnable.o)
                              TAMevent.o (symbol from plugin) (vTAMRXEint2Fired)
c:/MWSDK/ChipLib/SW4063V1416/Components/Library\libMAC_JN516x.a(TAMsecurity.o)
                              TAMcommon.o (symbol from plugin) (vTSCgetIncomingInfo)
c:/MWSDK/ChipLib/SW4063V1416/Components/Library\libMAC_JN516x.a(TAMsideways.o)
                              mac_pmic.o (symbol from plugin) (eTAStransmitRequest)
c:/MWSDK/ChipLib/SW4063V1416/Components/Library\libMAC_JN516x.a(TAMtime.o)
                              TAM.o (symbol from plugin) (vTTIBLETimerExpired)
c:/MWSDK/ChipLib/SW4063V1416/Components/Library\libMAC_JN516x.a(TAM_AES.o)
                              TAMsecurity.o (symbol from plugin) (u8TAM_AES_WriteAuxilliarySecurityHeaderIntoBuffer)
c:/MWSDK/ChipLib/SW4063V1416/Components/Library\libMAC_JN516x.a(Endian.o)
                              TAM_AES.o (symbol from plugin) (vFromU16ToLe)
c:/MWSDK/ChipLib/SW4063V1416/Components/Library\libMAC_JN516x.a(mac_acl.o)
                              TAMsecurity.o (symbol from plugin) (MAC_u8AclFindInfo)
c:/MWSDK/ChipLib/SW4063V1416/Components/Library\libMAC_JN516x.a(mac_misc.o)
                              mac_mlme.o (symbol from plugin) (vMAC_MISCpollRequest)
c:/MWSDK/ChipLib/SW4063V1416/Components/Library\libTimerServer_JN516x.a(tsv_main.o)
                              AppApiSleep.o (symbol from plugin) (s_sTimerList)
c:/MWSDK/ChipLib/SW4063V1416/Components/Library\libXcv_JN516x.a(xcv_main.o)
                              AppApi.o (symbol from plugin) (XCV_vCtor)
c:/MWSDK/ChipLib/SW4063V1416/Components/Library\libXcv_JN516x.a(xcv_access.o)
                              mac_main.o (symbol from plugin) (XCV_vDevWriteIER)
c:/MWSDK/ChipLib/SW4063V1416/Components/Library\libXcv_JN516x.a(xcv_isr.o)
                              AppApi.o (symbol from plugin) (vXCV_IntHandlerPhy)
c:/MWSDK/ChipLib/SW4063V1416/Components/Library\libAes_JN516x.a(AEScoprocessorCCM.o)
                              AES_CCM.o (symbol from plugin) (bACI_CCMstar)
c:/MWSDK/ChipLib/SW4063V1416/Components/Library\libAes_JN516x.a(AES_CCM_Star.o)
                              TAM_AES.o (symbol from plugin) (vACI_OptimisedCcmStar)
c:/MWSDK/ChipLib/SW4063V1416/Components/Library\libAes_JN516x.a(AEScoprocessorAPI.o)
                              AES_CCM_Star.o (symbol from plugin) (vACI_CmdWaitBusy)
c:/MWSDK/ChipLib/SW4063V1416/Components/Library\libHardwareApi_JN516x.a(AHI_Analogue.o)
                              utils.o (symbol from plugin) (bAHI_APRegulatorEnabled)
c:/MWSDK/ChipLib/SW4063V1416/Components/Library\libHardwareApi_JN516x.a(AHI_BrownOut.o)
                              objs_BLUE/Main.o (symbol from plugin) (vAHI_BrownOutConfigure)
c:/MWSDK/ChipLib/SW4063V1416/Components/Library\libHardwareApi_JN516x.a(AHI_Dio.o)
                              ToCoNet_main.o (symbol from plugin) (vAHI_DioSetPullup)
c:/MWSDK/ChipLib/SW4063V1416/Components/Library\libHardwareApi_JN516x.a(AHI_Reset.o)
                              ToCoNet_main.o (symbol from plugin) (vAHI_SwReset)
c:/MWSDK/ChipLib/SW4063V1416/Components/Library\libHardwareApi_JN516x.a(AHI_Spi.o)
                              AppQueueApi_ToCoNet.o (symbol from plugin) (vAHI_SpiRegisterCallback)
c:/MWSDK/ChipLib/SW4063V1416/Components/Library\libHardwareApi_JN516x.a(AHI_System.o)
                              AppApiSleep.o (symbol from plugin) (u8AHI_PowerStatus)
c:/MWSDK/ChipLib/SW4063V1416/Components/Library\libHardwareApi_JN516x.a(AHI_Timer.o)
                              utils.o (symbol from plugin) (vAHI_TimerEnable)
c:/MWSDK/ChipLib/SW4063V1416/Components/Library\libHardwareApi_JN516x.a(AHI_TimerInt.o)
                              AppQueueApi_ToCoNet.o (symbol from plugin) (vAHI_Timer0RegisterCallback)
c:/MWSDK/ChipLib/SW4063V1416/Components/Library\libHardwareApi_JN516x.a(AHI_Uart.o)
                              uart.o (symbol from plugin) (vAHI_UartSetBaudDivisor)
c:/MWSDK/ChipLib/SW4063V1416/Components/Library\libHardwareApi_JN516x.a(AHI_WakeTimer.o)
                              ToCoNet_utils.o (symbol from plugin) (vAHI_WakeTimerEnable)
c:/MWSDK/ChipLib/SW4063V1416/Components/Library\libHardwareApi_JN516x.a(AHI_Flash.o)
                              AHI_System.o (symbol from plugin) (vAHI_FlashAndEEPROMControllerIntHandler)
c:/MWSDK/ChipLib/SW4063V1416/Components/Library\libHardwareApi_JN516x.a(AHI_Infrared.o)
                              AHI_TimerInt.o (symbol from plugin) (vAHI_IntHandlerInfrared)
c:/MWSDK/ChipLib/SW4063V1416/Components/Library\libHardwareApi_JN516x.a(InternalFlashApi.o)
                              AHI_Flash.o (symbol from plugin) (bFlashErase)
c:/MWSDK/ChipLib/SW4063V1416/Components/Library\libHardwareApi_JN516x.a(AHI_FlashIndexSector.o)
                              AppStart.o (symbol from plugin) (bAHI_ReadMACID)
c:/MWSDK/ChipLib/SW4063V1416/Components/Library\libHardwareApi_JN516x.a(AHI_Si.o)
                              AppQueueApi_ToCoNet.o (symbol from plugin) (vAHI_SiRegisterCallback)
c:/MWSDK/ChipLib/SW4063V1416/Components/Library\libHardwareApi_JN516x.a(AHI_TickTimer.o)
                              AppQueueApi_ToCoNet.o (symbol from plugin) (vAHI_TickTimerInit)
c:/MWSDK/ChipLib/SW4063V1416/Components/Library\libHardwareApi_JN516x.a(AHI_Interrupt.o)
                              AppApi.o (symbol from plugin) (vAHI_InterruptSetPriority)
c:/MWSDK/ChipLib/SW4063V1416/Components/Library\libHardwareApi_JN516x.a(AHI_Init.o)
                              AppStart.o (symbol from plugin) (u32AHI_Init)
c:/MWSDK/ChipLib/SW4063V1416/Components/Library\libHardwareApi_JN516x.a(AHI_SpiSlave.o)
                              AHI_Init.o (symbol from plugin) (vAHI_IntHandlerSpiSlave)
c:/MWSDK/ChipLib/SW4063V1416/Components/Library\libMicroSpecific_JN516x.a(MicroInt_ba.o)
                              serial.o (symbol from plugin) (vMicroIntEnableOnly)
c:/MWSDK/ChipLib/SW4063V1416/Components/Library\libMicroSpecific_JN516x.a(MicroSyscall_ba.o)
                              AHI_Reset.o (symbol from plugin) (vMicroSyscall)
c:/MWSDK/ChipLib/SW4063V1416/Components/Library\libBoot_JN516x.a(Heap.o)
                              (u32HeapStart)
c:/MWSDK/ChipLib/SW4063V1416/Components/Library\libBoot_JN516x.a(ExceptionHandler.o)
                              (_exception_external_interrupt)
c:/MWSDK/ChipLib/SW4063V1416/Components/Library\libAppApi_JN516x.a(AppHousekeeping.o)
                              mac_scan.o (symbol from plugin) (sAppHousekeeping)
c:/MWSDK/ChipLib/SW4063V1416/Components/Library\libAes_JN516x.a(AEScoprocessorAPIinterrupts.o)
                              AHI_Init.o (symbol from plugin) (vACI_IntHandlerAes)
c:/mwsdk/tools/ba-elf-ba2-r36379/bin/../lib/gcc/ba-elf/4.7.4/../../../../ba-elf/lib/mcpu_jn51xx_sizeopt\libc.a(lib_a-memcmp.o)
                              C:\Users\Maeoka\AppData\Local\Temp\ccb3FIZH.ltrans0.ltrans.o (memcmp)
c:/mwsdk/tools/ba-elf-ba2-r36379/bin/../lib/gcc/ba-elf/4.7.4/../../../../ba-elf/lib/mcpu_jn51xx_sizeopt\libc.a(lib_a-memcpy.o)
                              C:\Users\Maeoka\AppData\Local\Temp\ccb3FIZH.ltrans0.ltrans.o (memcpy)
c:/mwsdk/tools/ba-elf-ba2-r36379/bin/../lib/gcc/ba-elf/4.7.4/../../../../ba-elf/lib/mcpu_jn51xx_sizeopt\libc.a(lib_a-memset.o)
                              C:\Users\Maeoka\AppData\Local\Temp\ccb3FIZH.ltrans0.ltrans.o (memset)
c:/mwsdk/tools/ba-elf-ba2-r36379/bin/../lib/gcc/ba-elf/4.7.4/mcpu_jn51xx_sizeopt\libgcc.a(__udivsi3.o)
                              C:\Users\Maeoka\AppData\Local\Temp\ccb3FIZH.ltrans3.ltrans.o (__udivsi3)
c:/mwsdk/tools/ba-elf-ba2-r36379/bin/../lib/gcc/ba-elf/4.7.4/mcpu_jn51xx_sizeopt\libgcc.a(__divsi3.o)
                              C:\Users\Maeoka\AppData\Local\Temp\ccb3FIZH.ltrans5.ltrans.o (__divsi3)
c:/mwsdk/tools/ba-elf-ba2-r36379/bin/../lib/gcc/ba-elf/4.7.4/mcpu_jn51xx_sizeopt\libgcc.a(__umodsi3.o)
                              C:\Users\Maeoka\AppData\Local\Temp\ccb3FIZH.ltrans4.ltrans.o (__umodsi3)

Allocating common symbols
Common symbol       size              file

_TWENET_TX_POWER_MAX
                    0x1               AppStart.o (symbol from plugin)
apvHwIndBufferData  0x2c              AppQueueApi_ToCoNet.o (symbol from plugin)
prMAC_TofMlmeReqHandler
                    0x4               mac_mlme.o (symbol from plugin)
apvMlmeIndBufferData
                    0x14              AppQueueApi_ToCoNet.o (symbol from plugin)
_TWENET_TX_POWER_VALUE
                    0x1               AppStart.o (symbol from plugin)
g_tSpiConfiguration
                    0x4               AHI_Flash.o (symbol from plugin)
SPRINTF_Stream      0x4               sprintf.o (symbol from plugin)
u8TAM_TxStatusOverride
                    0x1               TAMevent.o (symbol from plugin)
prMAC_TofRxHandler  0x4               TAMcommon.o (symbol from plugin)
_MAC_u8TxFailReason
                    0x1               mac.o (symbol from plugin)
apvMcpsIndBufferData
                    0x14              AppQueueApi_ToCoNet.o (symbol from plugin)
bAHI_ExtendedTemperatureOperation
                    0x1               AHI_System.o (symbol from plugin)
bMAC_DiscardUnsuccessfulAssocResponses
                    0x1               mac_pmic.o (symbol from plugin)
u8Msq               0x1               TAM_TAT.o (symbol from plugin)
g_bLegacyHwBugEmulation
                    0x1               AES_CCM_Star.o (symbol from plugin)

Discarded input sections

 .text          0x0000000000000000        0x0 objs_BLUE/Main.o (symbol from plugin)
 .data          0x0000000000000000        0x0 C:\Users\Maeoka\AppData\Local\Temp\ccb3FIZH.ltrans0.ltrans.o
 .data          0x0000000000000000        0x0 C:\Users\Maeoka\AppData\Local\Temp\ccb3FIZH.ltrans1.ltrans.o
 .data          0x0000000000000000        0x0 C:\Users\Maeoka\AppData\Local\Temp\ccb3FIZH.ltrans2.ltrans.o
 .data          0x0000000000000000        0x0 C:\Users\Maeoka\AppData\Local\Temp\ccb3FIZH.ltrans3.ltrans.o
 .data          0x0000000000000000        0x0 C:\Users\Maeoka\AppData\Local\Temp\ccb3FIZH.ltrans5.ltrans.o
 .data          0x0000000000000000        0x0 C:\Users\Maeoka\AppData\Local\Temp\ccb3FIZH.ltrans6.ltrans.o
 .data          0x0000000000000000        0x0 C:\Users\Maeoka\AppData\Local\Temp\ccb3FIZH.ltrans7.ltrans.o
 .data          0x0000000000000000        0x0 C:\Users\Maeoka\AppData\Local\Temp\ccb3FIZH.ltrans8.ltrans.o
 .bss           0x0000000000000000        0x0 C:\Users\Maeoka\AppData\Local\Temp\ccb3FIZH.ltrans10.ltrans.o
 .data          0x0000000000000000        0x0 C:\Users\Maeoka\AppData\Local\Temp\ccb3FIZH.ltrans11.ltrans.o
 .data          0x0000000000000000        0x0 C:\Users\Maeoka\AppData\Local\Temp\ccb3FIZH.ltrans12.ltrans.o
 .data          0x0000000000000000        0x0 C:\Users\Maeoka\AppData\Local\Temp\ccb3FIZH.ltrans13.ltrans.o
 .data          0x0000000000000000        0x0 C:\Users\Maeoka\AppData\Local\Temp\ccb3FIZH.ltrans14.ltrans.o
 .data          0x0000000000000000        0x0 c:/mwsdk/tools/ba-elf-ba2-r36379/bin/../lib/gcc/ba-elf/4.7.4/../../../../ba-elf/lib/mcpu_jn51xx_sizeopt\libc.a(lib_a-memcmp.o)
 .bss           0x0000000000000000        0x0 c:/mwsdk/tools/ba-elf-ba2-r36379/bin/../lib/gcc/ba-elf/4.7.4/../../../../ba-elf/lib/mcpu_jn51xx_sizeopt\libc.a(lib_a-memcmp.o)
 .data          0x0000000000000000        0x0 c:/mwsdk/tools/ba-elf-ba2-r36379/bin/../lib/gcc/ba-elf/4.7.4/../../../../ba-elf/lib/mcpu_jn51xx_sizeopt\libc.a(lib_a-memcpy.o)
 .bss           0x0000000000000000        0x0 c:/mwsdk/tools/ba-elf-ba2-r36379/bin/../lib/gcc/ba-elf/4.7.4/../../../../ba-elf/lib/mcpu_jn51xx_sizeopt\libc.a(lib_a-memcpy.o)
 .data          0x0000000000000000        0x0 c:/mwsdk/tools/ba-elf-ba2-r36379/bin/../lib/gcc/ba-elf/4.7.4/../../../../ba-elf/lib/mcpu_jn51xx_sizeopt\libc.a(lib_a-memset.o)
 .bss           0x0000000000000000        0x0 c:/mwsdk/tools/ba-elf-ba2-r36379/bin/../lib/gcc/ba-elf/4.7.4/../../../../ba-elf/lib/mcpu_jn51xx_sizeopt\libc.a(lib_a-memset.o)
 .data          0x0000000000000000        0x0 c:/mwsdk/tools/ba-elf-ba2-r36379/bin/../lib/gcc/ba-elf/4.7.4/mcpu_jn51xx_sizeopt\libgcc.a(__udivsi3.o)
 .bss           0x0000000000000000        0x0 c:/mwsdk/tools/ba-elf-ba2-r36379/bin/../lib/gcc/ba-elf/4.7.4/mcpu_jn51xx_sizeopt\libgcc.a(__udivsi3.o)
 .data          0x0000000000000000        0x0 c:/mwsdk/tools/ba-elf-ba2-r36379/bin/../lib/gcc/ba-elf/4.7.4/mcpu_jn51xx_sizeopt\libgcc.a(__divsi3.o)
 .bss           0x0000000000000000        0x0 c:/mwsdk/tools/ba-elf-ba2-r36379/bin/../lib/gcc/ba-elf/4.7.4/mcpu_jn51xx_sizeopt\libgcc.a(__divsi3.o)
 .data          0x0000000000000000        0x0 c:/mwsdk/tools/ba-elf-ba2-r36379/bin/../lib/gcc/ba-elf/4.7.4/mcpu_jn51xx_sizeopt\libgcc.a(__umodsi3.o)
 .bss           0x0000000000000000        0x0 c:/mwsdk/tools/ba-elf-ba2-r36379/bin/../lib/gcc/ba-elf/4.7.4/mcpu_jn51xx_sizeopt\libgcc.a(__umodsi3.o)
 .text          0x0000000000000000        0x0 ToCoNet_event.o (symbol from plugin)
 .text          0x0000000000000000        0x0 ToCoNet_main.o (symbol from plugin)
 .text          0x0000000000000000        0x0 ToCoNet_utils.o (symbol from plugin)
 .text          0x0000000000000000        0x0 ToCoNet_mod_Tx.o (symbol from plugin)
 .text          0x0000000000000000        0x0 ToCoNet_mod_TxRxQueue.o (symbol from plugin)
 .text          0x0000000000000000        0x0 ToCoNet_mod_Nwk_Common.o (symbol from plugin)
 .text          0x0000000000000000        0x0 ToCoNet_mod_Channel_Mgr.o (symbol from plugin)
 .text          0x0000000000000000        0x0 Version.o (symbol from plugin)
 .text          0x0000000000000000        0x0 AppQueueApi_ToCoNet.o (symbol from plugin)
 .text          0x0000000000000000        0x0 AppStart.o (symbol from plugin)
 .text          0x0000000000000000        0x0 getMacAddr.o (symbol from plugin)
 .text          0x0000000000000000        0x0 mac.o (symbol from plugin)
 .text          0x0000000000000000        0x0 AES_CCM.o (symbol from plugin)
 .text          0x0000000000000000        0x0 no_ack_handler.o (symbol from plugin)
 .text          0x0000000000000000        0x0 Version.o (symbol from plugin)
 .text          0x0000000000000000        0x0 serial.o (symbol from plugin)
 .text          0x0000000000000000        0x0 uart.o (symbol from plugin)
 .text          0x0000000000000000        0x0 ByteQueue.o (symbol from plugin)
 .text          0x0000000000000000        0x0 ccitt8.o (symbol from plugin)
 .text          0x0000000000000000        0x0 fprintf.o (symbol from plugin)
 .text          0x0000000000000000        0x0 sprintf.o (symbol from plugin)
 .text          0x0000000000000000        0x0 utils.o (symbol from plugin)
 .text          0x0000000000000000        0x0 ccm.o (symbol from plugin)
 .text          0x0000000000000000        0x0 Version.o (symbol from plugin)
 .text          0x0000000000000000        0x0 aescrypt.o (symbol from plugin)
 .text          0x0000000000000000        0x0 aeskey.o (symbol from plugin)
 .text          0x0000000000000000        0x0 aestab.o (symbol from plugin)
 .text          0x0000000000000000        0x0 AppApi.o (symbol from plugin)
 .text          0x0000000000000000        0x0 AppApiSleep.o (symbol from plugin)
 .text          0x0000000000000000        0x0 mac_main.o (symbol from plugin)
 .text          0x0000000000000000        0x0 mac_mcps.o (symbol from plugin)
 .text          0x0000000000000000        0x0 mac_mlme.o (symbol from plugin)
 .text          0x0000000000000000        0x0 mac_pib.o (symbol from plugin)
 .text          0x0000000000000000        0x0 mac_pib_mlme.o (symbol from plugin)
 .text          0x0000000000000000        0x0 mac_pmic.o (symbol from plugin)
 .text          0x0000000000000000        0x0 mac_ind.o (symbol from plugin)
 .text          0x0000000000000000        0x0 mac_scan.o (symbol from plugin)
 .text          0x0000000000000000        0x0 mac_lp.o (symbol from plugin)
 .text          0x0000000000000000        0x0 MCPS.o (symbol from plugin)
 .text          0x0000000000000000        0x0 phy_pib.o (symbol from plugin)
 .text          0x0000000000000000        0x0 TAM.o (symbol from plugin)
 .text          0x0000000000000000        0x0 TAMCO.o (symbol from plugin)
 .text          0x0000000000000000        0x0 TAMDE.o (symbol from plugin)
 .text          0x0000000000000000        0x0 TAM_MEM.o (symbol from plugin)
 .text          0x0000000000000000        0x0 TAM_MLME.o (symbol from plugin)
 .text          0x0000000000000000        0x0 TAM_TAH.o (symbol from plugin)
 .text          0x0000000000000000        0x0 TAM_TAI.o (symbol from plugin)
 .text          0x0000000000000000        0x0 TAM_TAT.o (symbol from plugin)
 .text          0x0000000000000000        0x0 TAMcommon.o (symbol from plugin)
 .text          0x0000000000000000        0x0 TAMevent.o (symbol from plugin)
 .text          0x0000000000000000        0x0 TAMqueue.o (symbol from plugin)
 .text          0x0000000000000000        0x0 TAMrxEnable.o (symbol from plugin)
 .text          0x0000000000000000        0x0 TAMsecurity.o (symbol from plugin)
 .text          0x0000000000000000        0x0 TAMsideways.o (symbol from plugin)
 .text          0x0000000000000000        0x0 TAMtime.o (symbol from plugin)
 .text          0x0000000000000000        0x0 TAM_AES.o (symbol from plugin)
 .text          0x0000000000000000        0x0 Endian.o (symbol from plugin)
 .text          0x0000000000000000        0x0 mac_acl.o (symbol from plugin)
 .text          0x0000000000000000        0x0 mac_misc.o (symbol from plugin)
 .text          0x0000000000000000        0x0 tsv_main.o (symbol from plugin)
 .text          0x0000000000000000        0x0 xcv_main.o (symbol from plugin)
 .text          0x0000000000000000        0x0 xcv_access.o (symbol from plugin)
 .text          0x0000000000000000        0x0 xcv_isr.o (symbol from plugin)
 .text          0x0000000000000000        0x0 AEScoprocessorCCM.o (symbol from plugin)
 .text          0x0000000000000000        0x0 AES_CCM_Star.o (symbol from plugin)
 .text          0x0000000000000000        0x0 AEScoprocessorAPI.o (symbol from plugin)
 .text          0x0000000000000000        0x0 AHI_Analogue.o (symbol from plugin)
 .text          0x0000000000000000        0x0 AHI_BrownOut.o (symbol from plugin)
 .text          0x0000000000000000        0x0 AHI_Dio.o (symbol from plugin)
 .text          0x0000000000000000        0x0 AHI_Reset.o (symbol from plugin)
 .text          0x0000000000000000        0x0 AHI_Spi.o (symbol from plugin)
 .text          0x0000000000000000        0x0 AHI_System.o (symbol from plugin)
 .text          0x0000000000000000        0x0 AHI_Timer.o (symbol from plugin)
 .text          0x0000000000000000        0x0 AHI_TimerInt.o (symbol from plugin)
 .text          0x0000000000000000        0x0 AHI_Uart.o (symbol from plugin)
 .text          0x0000000000000000        0x0 AHI_WakeTimer.o (symbol from plugin)
 .text          0x0000000000000000        0x0 AHI_Flash.o (symbol from plugin)
 .text          0x0000000000000000        0x0 AHI_Infrared.o (symbol from plugin)
 .text          0x0000000000000000        0x0 InternalFlashApi.o (symbol from plugin)
 .text          0x0000000000000000        0x0 AHI_FlashIndexSector.o (symbol from plugin)
 .text          0x0000000000000000        0x0 AHI_Si.o (symbol from plugin)
 .text          0x0000000000000000        0x0 AHI_TickTimer.o (symbol from plugin)
 .data          0x0000000000000000        0x0 c:/MWSDK/ChipLib/SW4063V1416/Components/Library\libHardwareApi_JN516x.a(AHI_Interrupt.o)
 .bss           0x0000000000000000        0x0 c:/MWSDK/ChipLib/SW4063V1416/Components/Library\libHardwareApi_JN516x.a(AHI_Interrupt.o)
 .text          0x0000000000000000        0x0 AHI_Init.o (symbol from plugin)
 .text          0x0000000000000000        0x0 AHI_SpiSlave.o (symbol from plugin)
 .text          0x0000000000000000        0x0 MicroInt_ba.o (symbol from plugin)
 .text          0x0000000000000000        0x0 c:/MWSDK/ChipLib/SW4063V1416/Components/Library\libMicroSpecific_JN516x.a(MicroSyscall_ba.o)
 .data          0x0000000000000000        0x0 c:/MWSDK/ChipLib/SW4063V1416/Components/Library\libMicroSpecific_JN516x.a(MicroSyscall_ba.o)
 .bss           0x0000000000000000        0x0 c:/MWSDK/ChipLib/SW4063V1416/Components/Library\libMicroSpecific_JN516x.a(MicroSyscall_ba.o)
 .text          0x0000000000000000        0x0 Heap.o (symbol from plugin)
 .text          0x0000000000000000        0x0 c:/MWSDK/ChipLib/SW4063V1416/Components/Library\libBoot_JN516x.a(ExceptionHandler.o)
 .data          0x0000000000000000        0x0 c:/MWSDK/ChipLib/SW4063V1416/Components/Library\libBoot_JN516x.a(ExceptionHandler.o)
 .bss           0x0000000000000000        0x0 c:/MWSDK/ChipLib/SW4063V1416/Components/Library\libBoot_JN516x.a(ExceptionHandler.o)
 .text          0x0000000000000000        0x0 AppHousekeeping.o (symbol from plugin)
 .text          0x0000000000000000        0x0 AEScoprocessorAPIinterrupts.o (symbol from plugin)

Memory Configuration

Name             Origin             Length             Attributes
flash            0x0000000000080000 0x0000000000028000
ram              0x000000000400004c 0x0000000000007fb4
*default*        0x0000000000000000 0xffffffffffffffff

Linker script and memory map

LOAD objs_BLUE/Main.o
LOAD C:\Users\Maeoka\AppData\Local\Temp\ccb3FIZH.ltrans0.ltrans.o
LOAD C:\Users\Maeoka\AppData\Local\Temp\ccb3FIZH.ltrans1.ltrans.o
LOAD C:\Users\Maeoka\AppData\Local\Temp\ccb3FIZH.ltrans2.ltrans.o
LOAD C:\Users\Maeoka\AppData\Local\Temp\ccb3FIZH.ltrans3.ltrans.o
LOAD C:\Users\Maeoka\AppData\Local\Temp\ccb3FIZH.ltrans4.ltrans.o
LOAD C:\Users\Maeoka\AppData\Local\Temp\ccb3FIZH.ltrans5.ltrans.o
LOAD C:\Users\Maeoka\AppData\Local\Temp\ccb3FIZH.ltrans6.ltrans.o
LOAD C:\Users\Maeoka\AppData\Local\Temp\ccb3FIZH.ltrans7.ltrans.o
LOAD C:\Users\Maeoka\AppData\Local\Temp\ccb3FIZH.ltrans8.ltrans.o
LOAD C:\Users\Maeoka\AppData\Local\Temp\ccb3FIZH.ltrans9.ltrans.o
LOAD C:\Users\Maeoka\AppData\Local\Temp\ccb3FIZH.ltrans10.ltrans.o
LOAD C:\Users\Maeoka\AppData\Local\Temp\ccb3FIZH.ltrans11.ltrans.o
LOAD C:\Users\Maeoka\AppData\Local\Temp\ccb3FIZH.ltrans12.ltrans.o
LOAD C:\Users\Maeoka\AppData\Local\Temp\ccb3FIZH.ltrans13.ltrans.o
LOAD C:\Users\Maeoka\AppData\Local\Temp\ccb3FIZH.ltrans14.ltrans.o
LOAD c:/mwsdk/tools/ba-elf-ba2-r36379/bin/../lib/gcc/ba-elf/4.7.4/../../../../ba-elf/lib/mcpu_jn51xx_sizeopt\libc.a
LOAD c:/mwsdk/tools/ba-elf-ba2-r36379/bin/../lib/gcc/ba-elf/4.7.4/mcpu_jn51xx_sizeopt\libgcc.a
LOAD c:/mwsdk/tools/ba-elf-ba2-r36379/bin/../lib/gcc/ba-elf/4.7.4/../../../../ba-elf/lib/mcpu_jn51xx_sizeopt\libc.a
LOAD c:/MWSDK/Wks_TWELITE/Current-Test/../../TWENET/L1200/lib/libTWENET_BLUE.a
LOAD c:/MWSDK/Wks_TWELITE/Current-Test/../../TWENET/L1200/lib/libTWENEText_BLUE.a
LOAD c:/MWSDK/Wks_TWELITE/Current-Test/../../TWENET/L1200/lib/libTWENETutils_BLUE.a
START GROUP
LOAD c:/MWSDK/ChipLib/SW4063V1416/Components/Library\libAppApi_JN516x.a
LOAD c:/MWSDK/ChipLib/SW4063V1416/Components/Library\libMAC_JN516x.a
LOAD c:/MWSDK/ChipLib/SW4063V1416/Components/Library\libTimerServer_JN516x.a
LOAD c:/MWSDK/ChipLib/SW4063V1416/Components/Library\libTOF_JN516x.a
LOAD c:/MWSDK/ChipLib/SW4063V1416/Components/Library\libXcv_JN516x.a
LOAD c:/MWSDK/ChipLib/SW4063V1416/Components/Library\libAes_JN516x.a
LOAD c:/MWSDK/ChipLib/SW4063V1416/Components/Library\libHardwareApi_JN516x.a
LOAD c:/MWSDK/ChipLib/SW4063V1416/Components/Library\libMicroSpecific_JN516x.a
LOAD c:/MWSDK/ChipLib/SW4063V1416/Components/Library\libBoot_JN516x.a
LOAD c:/MWSDK/ChipLib/SW4063V1416/Components/Library\libPDM_EEPROM_JN516x_NO_RTOS.a
LOAD c:/MWSDK/Wks_TWELITE/Current-Test/../../TWENET/L1200/lib/libTWENET_BLUE.a
LOAD c:/MWSDK/Wks_TWELITE/Current-Test/../../TWENET/L1200/lib/libTWENEText_BLUE.a
LOAD c:/MWSDK/Wks_TWELITE/Current-Test/../../TWENET/L1200/lib/libTWENETutils_BLUE.a
END GROUP
LOAD c:/mwsdk/tools/ba-elf-ba2-r36379/bin/../lib/gcc/ba-elf/4.7.4/../../../../ba-elf/lib/mcpu_jn51xx_sizeopt\libc.a
LOAD c:/mwsdk/tools/ba-elf-ba2-r36379/bin/../lib/gcc/ba-elf/4.7.4/mcpu_jn51xx_sizeopt\libgcc.a
LOAD c:/mwsdk/tools/ba-elf-ba2-r36379/bin/../lib/gcc/ba-elf/4.7.4/../../../../ba-elf/lib/mcpu_jn51xx_sizeopt\libc.a
                0x0000000000000800                _stack_size = 0x800
                0x0000000000080038                _exception_vsr_table = 0x80038
                0x0000000004000000                pSPIflashFncTable = 0x4000000
                0x0000000000000800                _stack_size = 0x800
                0x0000000000000044                restore_state = 0x44
                0x000000000000004a                bZSPIWaitWIPClear = 0x4a
                0x0000000000000050                u16ZSPIflashRDID = 0x50
                0x0000000000000056                u8SelectFlashChipType = 0x56
                0x000000000000005c                memcpy = 0x5c
                0x0000000000000066                vBootFlashProg = 0x66
                [0x0000000000000d16]                _minimum_heap_size = DEFINED (_minimum_heap_size)?_minimum_heap_size:0xd16
                0x0000000000000000                _SwConfig = (DEFINED (g_bSWConf_Debug) | (DEFINED (g_bSWConf_AltDebugPort) << 0x1))

.version        0x000000000007fffc        0x4
                0x000000000007fffc        0x4 LONG 0x4030008

.bir            0x0000000000080000       0x10
                0x0000000000080000                _flash_start = ABSOLUTE (.)
                0x0000000000080000                _flash_beg = ABSOLUTE (.)
                0x0000000000080000        0x4 LONG 0x12345678
                0x0000000000080004        0x4 LONG 0x11223344
                0x0000000000080008        0x4 LONG 0x55667788
                0x000000000008000c        0x1 BYTE 0x8
                0x000000000008000d        0x1 BYTE 0x1
                0x000000000008000e        0x2 SHORT 0x0

.flashheader    0x0000000000080010       0x28
                0x0000000000080010        0x4 LONG 0x0
                0x0000000000080014        0x4 LONG 0x0
                0x0000000000080018        0x4 LONG 0x0
                0x000000000008001c        0x2 SHORT 0x0
                0x000000000008001e        0x2 SHORT 0x0 ABSOLUTE (_SwConfig)
                0x0000000000080020                _enc_start = ABSOLUTE (.)
                0x0000000000080020        0x4 LONG 0xa060 ABSOLUTE (_image_len)
                0x0000000000080024        0x4 LONG 0x8a050 ABSOLUTE (_flash_data_start)
                0x0000000000080028        0x2 SHORT 0x13 ((ABSOLUTE (_ram_data_start) / 0x4) & 0xffff)
                0x000000000008002a        0x2 SHORT 0x4 ((ABSOLUTE (_ram_data_len) / 0x4) & 0xffff)
                0x000000000008002c        0x2 SHORT 0x17 ((ABSOLUTE (_bss_start) / 0x4) & 0xffff)
                0x000000000008002e        0x2 SHORT 0x665 ((ABSOLUTE (_bss_len) / 0x4) & 0xffff)
                0x0000000000080030        0x4 LONG 0x86450 ABSOLUTE (AppWarmStart)
                0x0000000000080034        0x4 LONG 0x896aa ABSOLUTE (AppColdStart)
                0x0000000000000000                _enc_offset = (_enc_start & 0xf)
                0x0000000000000044                PROVIDE (vException_BusError, restore_state)
                0x0000000000000044                PROVIDE (vException_UnalignedAccess, restore_state)
                0x0000000000000044                PROVIDE (vException_IllegalInstruction, restore_state)
                0x0000000000000044                PROVIDE (vException_SysCall, restore_state)
                0x0000000000000044                PROVIDE (vException_Trap, restore_state)
                0x0000000000000044                PROVIDE (vException_StackOverflow, restore_state)
                0x0000000000080038                . = ABSOLUTE (_exception_vsr_table)

.vsr_table      0x0000000000080038       0x18
                0x0000000000080038        0x4 LONG 0x44 ABSOLUTE (vException_BusError)
                0x000000000008003c        0x4 LONG 0x44 ABSOLUTE (vException_UnalignedAccess)
                0x0000000000080040        0x4 LONG 0x44 ABSOLUTE (vException_IllegalInstruction)
                0x0000000000080044        0x4 LONG 0x44 ABSOLUTE (vException_SysCall)
                0x0000000000080048        0x4 LONG 0x44 ABSOLUTE (vException_Trap)
                0x000000000008004c        0x4 LONG 0x44 ABSOLUTE (vException_StackOverflow)

.vsr_handlers   0x0000000000080050       0xaa
 *(.vsr_handlers)
 .vsr_handlers  0x0000000000080050       0xaa c:/MWSDK/ChipLib/SW4063V1416/Components/Library\libBoot_JN516x.a(ExceptionHandler.o)
                0x0000000000080050                _exception_external_interrupt
                0x00000000000800f8                _default_vsr_dummy

.rodata         0x00000000000800fc      0x4bc
 *(.rodata*)
 .rodata        0x00000000000800fc      0x1cb C:\Users\Maeoka\AppData\Local\Temp\ccb3FIZH.ltrans0.ltrans.o
 .rodata        0x00000000000802c7        0xa C:\Users\Maeoka\AppData\Local\Temp\ccb3FIZH.ltrans1.ltrans.o
 *fill*         0x00000000000802d1        0x3 00
 .rodata        0x00000000000802d4       0xd4 C:\Users\Maeoka\AppData\Local\Temp\ccb3FIZH.ltrans2.ltrans.o
                0x00000000000802d4                s_aprScanHandleEvt.10447
                0x0000000000080304                apvActionCalls
                0x000000000008038c                aprLPBMacVectorRamTable
                0x00000000000803a0                psTamMacContext
                0x00000000000803a4                psTAMcontext
 .rodata        0x00000000000803a8       0x19 C:\Users\Maeoka\AppData\Local\Temp\ccb3FIZH.ltrans3.ltrans.o
                0x00000000000803a8                gbHighPowerMode
                0x00000000000803a9                gu8ModuleID
 *fill*         0x00000000000803c1        0x3 00
 .rodata        0x00000000000803c4       0x14 C:\Users\Maeoka\AppData\Local\Temp\ccb3FIZH.ltrans4.ltrans.o
 .rodata        0x00000000000803d8       0x2c C:\Users\Maeoka\AppData\Local\Temp\ccb3FIZH.ltrans5.ltrans.o
                0x00000000000803d8                psTamXcvContext
                0x00000000000803dc                CSWTCH.35.20711.20711
                0x00000000000803f0                au32TimerBaseAddress
 .rodata        0x0000000000080404        0x4 C:\Users\Maeoka\AppData\Local\Temp\ccb3FIZH.ltrans6.ltrans.o
 .rodata.str1.1
                0x0000000000080408       0x9f C:\Users\Maeoka\AppData\Local\Temp\ccb3FIZH.ltrans7.ltrans.o
 .rodata        0x00000000000804a7        0x6 C:\Users\Maeoka\AppData\Local\Temp\ccb3FIZH.ltrans8.ltrans.o
                0x00000000000804a7                aeXcvPhyEvtToScanEvt.5394.10450
 .rodata.str1.1
                0x00000000000804ad       0x22 C:\Users\Maeoka\AppData\Local\Temp\ccb3FIZH.ltrans9.ltrans.o
 *fill*         0x00000000000804cf        0x1 00
 .rodata        0x00000000000804d0       0x38 C:\Users\Maeoka\AppData\Local\Temp\ccb3FIZH.ltrans9.ltrans.o
                0x00000000000804d0                asStateFuncTbl.2396
 .rodata        0x0000000000080508       0x18 C:\Users\Maeoka\AppData\Local\Temp\ccb3FIZH.ltrans10.ltrans.o
 .rodata.str1.1
                0x0000000000000000       0x11 C:\Users\Maeoka\AppData\Local\Temp\ccb3FIZH.ltrans11.ltrans.o
 .rodata        0x0000000000080520        0x8 C:\Users\Maeoka\AppData\Local\Temp\ccb3FIZH.ltrans13.ltrans.o
                0x0000000000080520                au32UartAddrOffset
 .rodata.str1.1
                0x0000000000080528       0x11 C:\Users\Maeoka\AppData\Local\Temp\ccb3FIZH.ltrans14.ltrans.o
 *fill*         0x0000000000080539        0x3 00
 .rodata        0x000000000008053c       0x7c C:\Users\Maeoka\AppData\Local\Temp\ccb3FIZH.ltrans14.ltrans.o
                0x0000000000080570                u32MacLow_TOCOS
                0x0000000000080574                u32MacHigh_TOCOS

.text           0x00000000000805b8     0x9a96
 *(.text*)
 .text          0x00000000000805b8     0x14d2 C:\Users\Maeoka\AppData\Local\Temp\ccb3FIZH.ltrans0.ltrans.o
                0x00000000000805b8                vAHI_IntHandlerAnalogPeriph
                0x00000000000805d8                vTTIBLETimerExpired
                0x00000000000805e3                mac_vLPBAdjustBeaconOffset
                0x0000000000080640                mac_u32LPBGetBeaconTimeout
                0x0000000000080649                eWEnDTmrExpiry.10088
                0x0000000000080654                eWEnDEdDone.10085
                0x00000000000806af                eGenlDontCare.10082
                0x00000000000806b4                eGenlIllegal.9707
                0x00000000000806bb                u32GetTimer0
                0x00000000000806c2                vSetTimer0
                0x00000000000806d1                SPRINTF_bPutChar.4597
                0x000000000008070d                vHandlerPatch.4310
                0x0000000000080744                u8HwEventHandler.1707
                0x0000000000080763                vACI_CmdWaitBusy
                0x00000000000807c7                vACI_OptimisedCcmStar
                0x00000000000809df                vTAIdisableInterrupt
                0x00000000000809f8                vUpdateRegisters.19701
                0x0000000000080a3f                psRemove.part.0.19651
                0x0000000000080a6e                MAC_u8AclFindInfo
                0x0000000000080b98                vTASretrieveSecurity
                0x0000000000080bba                MAC_bLookUpKeyDescriptor.17203
                0x0000000000080c34                u8TSCframeIncrease
                0x0000000000080c6d                vCopyToDataFromMacAddr.17113
                0x0000000000080ca0                bTSCgetOutgoingInfo
                0x0000000000080da9                psTAQsearchFifo
                0x0000000000080df2                bTAQremoveFromFifo
                0x0000000000080e2f                vTAMinsertEvent
                0x0000000000080e95                vTTITimer2Expired
                0x0000000000080e99                vTTITimer1Expired
                0x0000000000080e9d                vTAM_TxRetryTimeout
                0x0000000000080ea1                vTACsetTxFrameDefaults
                0x0000000000080ec7                u8TACgetHeaderSize
                0x0000000000080f04                bUpdateTime.15431
                0x0000000000080f3f                u32TACpayloadToU32M
                0x0000000000080f60                vTACu32ToPayloadM
                0x0000000000080f78                vTACbuildBeacon
                0x0000000000081180                bTACframeInProgress
                0x00000000000811aa                bTACassessBeaconForPayload
                0x00000000000811fb                bIsBbcSafeForTx
                0x0000000000081230                vTATwriteAclMaterialToHardware
                0x0000000000081255                vTATsetBLE
                0x000000000008128c                vTATgetFramePayload
                0x00000000000812a9                eTATreadTXstatus
                0x00000000000812ef                vTAHsetPhyStateDirect.part.0.14572
                0x000000000008130b                vDoGoOff.16393
                0x0000000000081325                vMEMreturn
                0x0000000000081396                vTACinformOriginator
                0x00000000000813b8                vTTITransactionTimerExpired
                0x00000000000813e0                pvMEMget
                0x000000000008140c                vTAMDEdetermineNullState
                0x0000000000081426                vTAMCOupdatePendingList
                0x00000000000814f8                vTAMCOsetCoordinator
                0x000000000008151e                vPhySetChannel
                0x0000000000081537                eScanHandleEvt.part.0.10118
                0x0000000000081560                mac_eDcfmIndPost
                0x0000000000081581                mac_psDcfmIndGetBuf
                0x00000000000815a2                vMAC_MISCpollConfirm
                0x00000000000815d2                vMLMErxEnableConfirm
                0x0000000000081604                vMLMEcommStatus
                0x0000000000081667                vMLMEcommStatusFromFrame
                0x00000000000816ab                vTSCpostTransmitUpdate
                0x00000000000816da                vMLMEsyncLoss
                0x000000000008170d                vPMICpostFailedAssocDcfm
                0x0000000000081745                vPMICassocReqTO_2.8535
                0x000000000008175c                MAC_vPibSetPanId
                0x0000000000081777                vHandleTofRequest.6641
                0x000000000008177a                vAppApiDefSetPrbsSeed
                0x000000000008179e                u8CCITT8
                0x00000000000817c4                Mac_vInit
                0x0000000000081810                bAES_CCM_KeyReg
                0x000000000008184f                bFifoPush.3037
                0x0000000000081888                vAppQApiPostMlme.3023
                0x00000000000818a7                vAppQApiPostMcps.3030
                0x00000000000818c2                pvFifoPull.3034
                0x00000000000818e9                psAppQApiGetMlmeBuffer.3020
                0x00000000000818f1                psAppQApiGetMcpsBuffer.3027
                0x00000000000818f9                ToCoNet_vReg_mod_TxRxQueueMid
                0x000000000008197a                PRSEV_vSetState
                0x000000000008198a                PRSEV_u8Register
                0x00000000000819bc                PRSEV_vProcessEv_core.1503
                0x0000000000081a58                PRSEV_vProcessEvPost
 .text.unlikely
                0x0000000000081a8a        0xf C:\Users\Maeoka\AppData\Local\Temp\ccb3FIZH.ltrans0.ltrans.o
                0x0000000000081a8a                _PRSEV_vProcessEvSingleH
 .text          0x0000000000081a99      0xb69 C:\Users\Maeoka\AppData\Local\Temp\ccb3FIZH.ltrans1.ltrans.o
                0x0000000000081bf9                bAES_CCM_EncodeKey
                0x0000000000081ca6                vHnd_E_STATE_FINISH_TX_FAIL.2340
                0x0000000000081d61                vHnd_E_STATE_FINISH_TX_SUCCESS.2345
                0x0000000000081df8                bTAM_AES_CCMstarPatch
                0x0000000000081f3c                bTAM_AES_CCMstarPatch2006
                0x000000000008221b                bTATsendFrame
                0x000000000008226e                vTrySendFromDirectCAP.12686
                0x0000000000082289                vTrySendFromDirectNoBeacon.12690
                0x00000000000822b4                vTAMCOint1Fired
                0x00000000000823d0                vTAMCOreqTXnoBeacon
                0x00000000000823e1                vTAMCOreqTXinCAP
                0x0000000000082406                vTrySendUnslotted.13231
                0x000000000008241f                bSendDataRequest.13233
                0x0000000000082531                bProcessBeaconRX.13236
 *fill*         0x0000000000082602        0x2 00
 .text          0x0000000000082604      0xba0 C:\Users\Maeoka\AppData\Local\Temp\ccb3FIZH.ltrans2.ltrans.o
                0x0000000000082604                eWBRTTxDone.10104
                0x0000000000082622                vTAMCOframeTXgoingIdle
                0x000000000008263b                vTAMCOframeTXcap
                0x000000000008265f                eWCoRRxDone.10095
                0x0000000000082709                eWBcnRxDone.10107
                0x0000000000082cf2                vTAMCOframeRXcap
                0x0000000000082d04                vTAMCOframeRXgoingIdle
                0x0000000000082d1a                vTAMCOframeRXnobeacon
                0x0000000000082d2c                vTAMDEframeRX
                0x0000000000082d54                vTAMDEframeRXtrackingDR
                0x0000000000082d97                vTAMDEframePreSyncReq
                0x0000000000082daf                vTAMCOframeTXbeacon
                0x0000000000082e76                vTAMDEframeRXsyncReq
                0x00000000000830c5                vTAMDEint1FiredTrackingCAPgts
                0x0000000000083176                eWONTTxDone.10101
 .text          0x00000000000831a4      0x78a C:\Users\Maeoka\AppData\Local\Temp\ccb3FIZH.ltrans3.ltrans.o
                0x00000000000831a4                UART_vHandleUartInterrupt.4435
                0x000000000008322f                SERIAL_vTxReady
                0x0000000000083267                vAppQApiPostHwIntT.3016
                0x00000000000832e4                vRxChar.4335
                0x000000000008336a                vXCV_IntHandlerPhy
                0x000000000008341c                vScanHandleTimer.9704
                0x0000000000083421                bAES_CCM_DecodeKey
                0x00000000000834dd                vXCV_IntHandlerBbc
                0x0000000000083580                u8TAM_AES_WriteAuxilliarySecurityHeaderIntoBuffer
                0x00000000000835f2                phy_ePibSet.part.1.11914
                0x000000000008363a                u32AHI_ReadIndexSectorBits.constprop.9
                0x000000000008369b                vTAIsetCapTime
                0x00000000000836bc                vTAIsetRxEnableTime
                0x00000000000836dd                vDoGoActive.16395
                0x00000000000836ff                vTAMRXEint2Fired
                0x0000000000083735                vTAMRXEsetPhy
                0x00000000000837f8                vTAHsetPhyState
                0x0000000000083828                vTAMCOint2Fired
                0x0000000000083848                vSetPHYfromMacValue.13229
                0x000000000008387a                vTAMDEint1FiredWaitDR
                0x0000000000083887                vTACsetPHYfromMacValue
                0x00000000000838a8                vTAMRXEsetReceiveForPibChange
                0x00000000000838e8                bAHI_ReadMACID
 .text.unlikely
                0x000000000008392e      0x186 C:\Users\Maeoka\AppData\Local\Temp\ccb3FIZH.ltrans3.ltrans.o
                0x00000000000839a7                bStartXtal32k.20387
 .text          0x0000000000083ab4      0xa5d C:\Users\Maeoka\AppData\Local\Temp\ccb3FIZH.ltrans4.ltrans.o
                0x0000000000083ac9                mac_vLPBStartTimer
                0x0000000000083dd4                vTimerCallback.20363
                0x0000000000083ddf                vProcessEvCoreTx.2332
                0x0000000000083ec9                vPrintString.4574.constprop.50
                0x0000000000083f5c                vPrintInteger.4580.constprop.49
                0x0000000000084004                vAHI_ProtocolPower.constprop.39
                0x0000000000084012                bAHI_SetClockRate
                0x000000000008411d                bAES_CCMstar
                0x00000000000841e9                pvHeap_Alloc
                0x00000000000841ec                u32AHI_Init
                0x00000000000842ae                vMicroIntRestoreState
                0x00000000000842ba                vAHI_WakeTimerStop.part.3.21043
                0x00000000000842da                mac_vLPBStopTimer
                0x00000000000842e4                vAHI_UartSetRTSCTS.part.15.20824
                0x000000000008430b                vAHI_UartReset.part.4.20797
                0x0000000000084343                vAHI_UartSetBaudDivisor.part.1.20777
                0x0000000000084382                vAHI_WatchdogStop
                0x0000000000084399                vAHI_CpuDoze
                0x00000000000843ac                XCV_vCtor.constprop.37
 .text.unlikely
                0x0000000000084511       0xd5 C:\Users\Maeoka\AppData\Local\Temp\ccb3FIZH.ltrans4.ltrans.o
                0x0000000000084511                vAHI_TimerEnable.part.1.20578.constprop.22
                0x000000000008457c                vAHI_MemoryHold.20477
                0x00000000000845c1                vStartXtal32kExternalRc.20377
                0x00000000000845d2                vAHI_DioSetDirection
 .text          0x00000000000845e6      0x2d2 C:\Users\Maeoka\AppData\Local\Temp\ccb3FIZH.ltrans5.ltrans.o
                0x00000000000845e6                u32AppApiDefInit
                0x0000000000084851                vProcessEvCoreMac
 .text.unlikely
                0x00000000000848b8      0x484 C:\Users\Maeoka\AppData\Local\Temp\ccb3FIZH.ltrans5.ltrans.o
                0x00000000000848b8                ToCoNet_vStart
 .text          0x0000000000084d3c      0xa3d C:\Users\Maeoka\AppData\Local\Temp\ccb3FIZH.ltrans6.ltrans.o
                0x0000000000084d3c                vTACintRXheader
                0x0000000000085537                SERIAL_bTxChar
                0x00000000000855e4                vTAMCOint1FiredCAP
                0x0000000000085657                vTAMCOstartBeacon
                0x0000000000085693                vStartStoreValues.12754
                0x000000000008574a                bStartCallback.12783
 .text          0x0000000000085779      0xbf3 C:\Users\Maeoka\AppData\Local\Temp\ccb3FIZH.ltrans7.ltrans.o
                0x0000000000085914                vMLMEbeaconNotify
                0x0000000000085a72                vMCPSframeReceived
                0x0000000000085b35                vExpireHead.19656
                0x0000000000085b65                ToCoNet_vInit
                0x0000000000085e90                vMicroIntEnableOnly.constprop.52
                0x0000000000085ebc                QUEUE__u8RemoveItem
                0x0000000000085f16                vHnd_E_STATE_RUNNING.2371
                0x0000000000086168                QUEUE__vAddItem.constprop.51
                0x000000000008619a                vProcessEvCore.1358
                0x0000000000086317                vHnd_E_STATE_IDLE.2355
 .text.unlikely
                0x000000000008636c        0xf C:\Users\Maeoka\AppData\Local\Temp\ccb3FIZH.ltrans7.ltrans.o
                0x000000000008636c                u32AppQApiInitInt_PATCH
 *fill*         0x000000000008637b        0x1 00
 .text          0x000000000008637c      0xa24 C:\Users\Maeoka\AppData\Local\Temp\ccb3FIZH.ltrans8.ltrans.o
                0x000000000008637c                vPostDcfm.10091
                0x0000000000086450                AppWarmStart
                0x00000000000864c6                vSetNextChannel.10139
                0x000000000008651f                MAC_vHandleMlmeReqRsp
                0x0000000000086ccd                vTAMDEint1FiredTracking
                0x0000000000086d3c                vTAMDEint1FiredSyncReq
 .text          0x0000000000086da0      0xb3e C:\Users\Maeoka\AppData\Local\Temp\ccb3FIZH.ltrans9.ltrans.o
                0x0000000000086da0                TSV_eStart
                0x0000000000086e84                eTAStransmitRequest
                0x000000000008721f                TSV_eOpen
                0x0000000000087227                vAppApiDefRestoreMacSettings
                0x00000000000872f8                vAppApiDefSaveMacSettings
                0x0000000000087355                mac_vLPBSleep
                0x0000000000087428                pvAppApiDefGetMacAddrLocation
                0x0000000000087431                eAppApiDefPlmeGet
                0x0000000000087483                vHnd_E_STATE_PREPARE_TX.2350
 *fill*         0x00000000000878de        0x2 00
 .text          0x00000000000878e0      0x95c C:\Users\Maeoka\AppData\Local\Temp\ccb3FIZH.ltrans10.ltrans.o
                0x00000000000878e0                vPMICassocReqTO_1.8528
                0x0000000000087968                vTAM_MCPSdataRequest
                0x00000000000879ab                bTACcheckPANconflict
                0x0000000000087a64                vTAMDEstartSync
                0x0000000000087ae3                eTAMselect
                0x0000000000087c24                MAC_pvCtor
                0x000000000008803f                vDeterminePowerState.13353
                0x00000000000880c3                vTAMDEint1FiredTrackingBeacon
                0x0000000000088163                vTAMDEint2FiredTrackingDR
                0x0000000000088188                vTAMDEframeTXtrackingDR
                0x00000000000881e1                vTAMDEint2FiredPollActive
                0x0000000000088215                vTAMDEreqTXnullTrackingCAP
                0x000000000008822e                vTAM_TxRetryTimer
 .text          0x000000000008823c      0x6bd C:\Users\Maeoka\AppData\Local\Temp\ccb3FIZH.ltrans11.ltrans.o
                0x000000000008823c                ToCoNet_vMain
                0x0000000000088865                ToCoNet_ChMgr_vCh_TxFin
                0x0000000000088892                vHnd_E_STATE_WAIT_TX.2363
 *fill*         0x00000000000888f9        0x3 00
 .text          0x00000000000888fc      0x780 C:\Users\Maeoka\AppData\Local\Temp\ccb3FIZH.ltrans12.ltrans.o
                0x00000000000888fc                eGenTmrExpiry.10400
                0x000000000008893e                eWEDTEdDone.10403
                0x0000000000088962                TSV_eStop
                0x0000000000088a20                bPMICdisassocReqSent.8524
                0x0000000000088ada                MAC_vHandleMcpsReqRsp
                0x0000000000088b67                bMCPSframeTXcomplete.11135
                0x0000000000088bbc                bSendSyncLoss.15366
                0x0000000000088bd4                bPollReqSent.18962
                0x0000000000088bec                bTASsendCommStatusInd
                0x0000000000088c01                bAssocRespSent.8520
                0x0000000000088c14                eTACprocessFrameTXcomplete
                0x0000000000088d91                vTAMCOframeTXnobeacon
                0x0000000000088da6                vTAMCOframeStarting
                0x0000000000088dbf                vTAMDEframeTXDEnull
                0x0000000000088de2                vTAMDEframeTXtrackingCAPgts
                0x0000000000088e0e                bPMICassocReqSent.8516
                0x0000000000088e90                bPMICassocReqPollSent.8531
                0x0000000000088ee4                eWChCChanChgd.10115
 .text          0x000000000008907c      0x611 C:\Users\Maeoka\AppData\Local\Temp\ccb3FIZH.ltrans13.ltrans.o
                0x000000000008907c                vAHI_IntHandlerTickTimer
                0x00000000000890c3                eGenRxHdrDone.10098
                0x00000000000890d3                eAppApiDefPlmeSet
                0x000000000008912c                _ToCoNet_bRfChChannel
                0x0000000000089193                ToCoNet_ChMgr_bCh_Reconfig
                0x00000000000891fb                vAppApiDefMcpsRequest
                0x0000000000089226                vAppApiDefMlmeRequest
                0x0000000000089251                pvAppApiDefGetMacHandle
                0x000000000008925a                cbAppColdStart.part.1.1373
 .text.unlikely
                0x000000000008968d       0x1d C:\Users\Maeoka\AppData\Local\Temp\ccb3FIZH.ltrans13.ltrans.o
                0x000000000008968d                Mac_vReset
 .text          0x00000000000896aa      0x531 C:\Users\Maeoka\AppData\Local\Temp\ccb3FIZH.ltrans14.ltrans.o
                0x00000000000896aa                AppColdStart
 .text          0x0000000000089bdb       0x25 c:/mwsdk/tools/ba-elf-ba2-r36379/bin/../lib/gcc/ba-elf/4.7.4/../../../../ba-elf/lib/mcpu_jn51xx_sizeopt\libc.a(lib_a-memcmp.o)
                0x0000000000089bdb                memcmp
 .text          0x0000000000089c00       0x19 c:/mwsdk/tools/ba-elf-ba2-r36379/bin/../lib/gcc/ba-elf/4.7.4/../../../../ba-elf/lib/mcpu_jn51xx_sizeopt\libc.a(lib_a-memcpy.o)
 .text          0x0000000000089c19       0x12 c:/mwsdk/tools/ba-elf-ba2-r36379/bin/../lib/gcc/ba-elf/4.7.4/../../../../ba-elf/lib/mcpu_jn51xx_sizeopt\libc.a(lib_a-memset.o)
                0x0000000000089c19                memset
 *fill*         0x0000000000089c2b        0x1 00
 .text          0x0000000000089c2c      0x204 c:/mwsdk/tools/ba-elf-ba2-r36379/bin/../lib/gcc/ba-elf/4.7.4/mcpu_jn51xx_sizeopt\libgcc.a(__udivsi3.o)
                0x0000000000089c2c                __udivsi3
 .text          0x0000000000089e30       0x30 c:/mwsdk/tools/ba-elf-ba2-r36379/bin/../lib/gcc/ba-elf/4.7.4/mcpu_jn51xx_sizeopt\libgcc.a(__divsi3.o)
                0x0000000000089e30                __divsi3
 .text          0x0000000000089e60      0x1b0 c:/mwsdk/tools/ba-elf-ba2-r36379/bin/../lib/gcc/ba-elf/4.7.4/mcpu_jn51xx_sizeopt\libgcc.a(__umodsi3.o)
                0x0000000000089e60                __umodsi3
 .text          0x000000000008a010       0x27 c:/MWSDK/ChipLib/SW4063V1416/Components/Library\libHardwareApi_JN516x.a(AHI_Interrupt.o)
                0x000000000008a010                vAHI_InterruptSetPriority
                0x000000000008a02e                vAHI_InterruptSetActivePriorityLevel
 .text.vMicroSyscall
                0x000000000008a037       0x17 c:/MWSDK/ChipLib/SW4063V1416/Components/Library\libMicroSpecific_JN516x.a(MicroSyscall_ba.o)
                0x000000000008a037                vMicroSyscall
                0x000000000008a04e                _flash_end = ABSOLUTE (.)

.rela.dyn       0x000000000008a050        0x0
 .rela.text     0x0000000000000000        0x0 C:\Users\Maeoka\AppData\Local\Temp\ccb3FIZH.ltrans0.ltrans.o
 .rela.rodata   0x0000000000000000        0x0 C:\Users\Maeoka\AppData\Local\Temp\ccb3FIZH.ltrans0.ltrans.o
 .rela.text.unlikely
                0x0000000000000000        0x0 C:\Users\Maeoka\AppData\Local\Temp\ccb3FIZH.ltrans0.ltrans.o
 .rela.data     0x0000000000000000        0x0 C:\Users\Maeoka\AppData\Local\Temp\ccb3FIZH.ltrans0.ltrans.o
                0x000000000400004c                . = ORIGIN (ram)

.data           0x000000000400004c       0x10 load address 0x000000000008a050
                0x000000000400004c                _ram_data_start = ABSOLUTE (.)
 *(.data*)
 .data          0x000000000400004c        0x4 C:\Users\Maeoka\AppData\Local\Temp\ccb3FIZH.ltrans4.ltrans.o
                0x000000000400004c                u32HeapStart
 .data.initinboot
                0x0000000004000050        0x8 C:\Users\Maeoka\AppData\Local\Temp\ccb3FIZH.ltrans4.ltrans.o
 .data          0x0000000004000058        0x1 C:\Users\Maeoka\AppData\Local\Temp\ccb3FIZH.ltrans9.ltrans.o
                0x0000000004000058                u8TxWkrNow.2473
 .data          0x0000000004000059        0x1 C:\Users\Maeoka\AppData\Local\Temp\ccb3FIZH.ltrans10.ltrans.o
 .data.initinboot
                0x000000000400005a        0x1 C:\Users\Maeoka\AppData\Local\Temp\ccb3FIZH.ltrans10.ltrans.o
                0x000000000400005a                gMAC_u8MaxBuffers
 *(.data.*)
                0x000000000400005c                . = ALIGN (0x4)
 *fill*         0x000000000400005b        0x1 00
                0x000000000400005c                _ram_data_end = ABSOLUTE (.)

.bss            0x000000000400005c     0x1994 load address 0x000000000008a060
                0x000000000400005c                _bss_start = ABSOLUTE (.)
 *(.bss*)
 .bss           0x000000000400005c      0xb04 C:\Users\Maeoka\AppData\Local\Temp\ccb3FIZH.ltrans0.ltrans.o
 .bss           0x0000000004000b60        0x4 C:\Users\Maeoka\AppData\Local\Temp\ccb3FIZH.ltrans1.ltrans.o
                0x0000000004000b60                bStartSend
 .bss.dontinitinboot
                0x0000000004000b64        0x1 C:\Users\Maeoka\AppData\Local\Temp\ccb3FIZH.ltrans1.ltrans.o
 *fill*         0x0000000004000b65        0x3 00
 .bss           0x0000000004000b68       0x40 C:\Users\Maeoka\AppData\Local\Temp\ccb3FIZH.ltrans2.ltrans.o
                0x0000000004000b68                g_sLP
                0x0000000004000ba4                g_pvMac
 .bss.initinboot
                0x0000000004000ba8      0x1c0 C:\Users\Maeoka\AppData\Local\Temp\ccb3FIZH.ltrans2.ltrans.o
                0x0000000004000ba8                g_sMac
 .bss           0x0000000004000d68       0x24 C:\Users\Maeoka\AppData\Local\Temp\ccb3FIZH.ltrans3.ltrans.o
                0x0000000004000d68                bTxEventQueued.16261
                0x0000000004000d69                u8TxEventStatus.16262
                0x0000000004000d6c                sAppHousekeeping
                0x0000000004000d84                prAppHwCallback.3261
                0x0000000004000d88                gbTimeOutFlag.20550
 .bss           0x0000000004000d8c        0x4 C:\Users\Maeoka\AppData\Local\Temp\ccb3FIZH.ltrans4.ltrans.o
 .bss.dontinitinboot
                0x0000000004000d90        0xc C:\Users\Maeoka\AppData\Local\Temp\ccb3FIZH.ltrans4.ltrans.o
 .bss           0x0000000004000d9c      0x170 C:\Users\Maeoka\AppData\Local\Temp\ccb3FIZH.ltrans5.ltrans.o
                0x0000000004000d9c                g_sXcv
                0x0000000004000da0                prMcpsRequest.5528
                0x0000000004000da4                prMlmeRequest.5527
                0x0000000004000da8                prOriginalHandler.4314
                0x0000000004000dac                psRxQueueList.4180
                0x0000000004000dc0                prTickTimeAppCallback
                0x0000000004000dc4                apfTimerAppCallback.20763
                0x0000000004000dd8                au16TimerSettings.20712
                0x0000000004000de4                asEventHandler.1566
                0x0000000004000e64                sEvVars
                0x0000000004000e80                u32TickCount_ms
                0x0000000004000e84                au8Txdatabuff_idx_sTxQueue
                0x0000000004000e88                u8TxBuffSiz_sTxQueue
                0x0000000004000e8c                sTxdatabuff_sTxQueue
                0x0000000004000e90                sTxQueue
                0x0000000004000eac                au8Rxdatabuff_idx_sRxQueue
                0x0000000004000eb0                u8RxBuffSiz_sRxQueue
                0x0000000004000eb4                sRxdatabuff_sRxQueue
                0x0000000004000eb8                sRxQueue
                0x0000000004000ed4                au8Rxdatabuff_idx_sRxQueueCmd
                0x0000000004000ed8                u8RxBuffSiz_sRxQueueCmd
                0x0000000004000edc                sRxdatabuff_sRxQueueCmd
                0x0000000004000ee0                sRxQueueCmd.2004
 .bss           0x0000000004000f0c        0x8 C:\Users\Maeoka\AppData\Local\Temp\ccb3FIZH.ltrans6.ltrans.o
 .bss           0x0000000004000f14      0x724 C:\Users\Maeoka\AppData\Local\Temp\ccb3FIZH.ltrans7.ltrans.o
                0x0000000004000f14                bForceInitialize.2432
                0x0000000004000f18                prApAppCallback.20192
                0x0000000004000f1c                prSpiAppCallback.20351
                0x0000000004000f20                prSiAppCallback.21546
                0x0000000004000f24                prAppMcpsCallback.3259
                0x0000000004000f28                prAppMlmeCallback.3260
                0x0000000004000f2c                TxWorker_u8Num.2431
 .bss.initinboot
                0x0000000004001638        0x4 C:\Users\Maeoka\AppData\Local\Temp\ccb3FIZH.ltrans7.ltrans.o
                0x0000000004001638                prSysCtrlAppCallback.20554
 .bss           0x000000000400163c       0x70 C:\Users\Maeoka\AppData\Local\Temp\ccb3FIZH.ltrans8.ltrans.o
                0x000000000400163c                sToCoNet_AppContext
                0x0000000004001658                sToCoNet_Context
                0x000000000400169c                sAssocSecurity.9145
                0x00000000040016a8                g_bJenieBackwardsCompatibilityMode
 .bss           0x00000000040016ac       0x34 C:\Users\Maeoka\AppData\Local\Temp\ccb3FIZH.ltrans9.ltrans.o
                0x00000000040016ac                sCh_Context.2894
                0x00000000040016b0                u8AppId_Pkt_head.4183
                0x00000000040016b4                u32MyAddr.4182
                0x00000000040016b8                u32AppId.4179
                0x00000000040016bc                asTx.2430
 .bss.initinboot
                0x00000000040016e0        0x1 C:\Users\Maeoka\AppData\Local\Temp\ccb3FIZH.ltrans9.ltrans.o
 *fill*         0x00000000040016e1        0x3 00
 .bss.initinboot
                0x00000000040016e4        0x8 C:\Users\Maeoka\AppData\Local\Temp\ccb3FIZH.ltrans10.ltrans.o
                0x00000000040016e4                g_u32MacAddrLocation
                0x00000000040016e8                prvUserTxStartedCallback
 .bss           0x00000000040016ec       0x6c C:\Users\Maeoka\AppData\Local\Temp\ccb3FIZH.ltrans11.ltrans.o
                0x00000000040016ec                sMcpsIndQueue.3255
                0x00000000040016fc                bRxQueue_Init.4181
                0x0000000004001700                sMcpsIndBufferQueue.3253
                0x0000000004001710                sMlmeIndQueue.3256
                0x0000000004001720                sMlmeIndBufferQueue.3254
                0x0000000004001730                sHwIndQueue.3257
                0x0000000004001740                sHwIndBufferQueue.3258
 .bss           0x0000000004001758       0x14 C:\Users\Maeoka\AppData\Local\Temp\ccb3FIZH.ltrans12.ltrans.o
                0x0000000004001758                s_sTimerList
                0x0000000004001768                u8AssocResponsesInProgress.9144
 .bss           0x000000000400176c      0x1ac C:\Users\Maeoka\AppData\Local\Temp\ccb3FIZH.ltrans13.ltrans.o
                0x000000000400176c                prUart1AppCallback.21018
                0x0000000004001770                prUart0AppCallback.21017
                0x0000000004001774                asUARTS.4479
                0x0000000004001794                sOpt.4486
                0x00000000040017a4                asSerialPorts
                0x00000000040017dc                sSerStream.1452
                0x00000000040017e4                au8sprintf.4643
                0x00000000040017e8                SPRINTF_MAX_BUFF.4645
 .bss           0x0000000004001918       0x98 C:\Users\Maeoka\AppData\Local\Temp\ccb3FIZH.ltrans14.ltrans.o
                0x0000000004001918                sContext.4304
                0x0000000004001944                sToCoNet_Modules
 .bss.dontinitinboot
                0x00000000040019b0       0x40 c:/MWSDK/ChipLib/SW4063V1416/Components/Library\libBoot_JN516x.a(ExceptionHandler.o)
                0x00000000040019b0                isr_handlers
 *(.bss.*)
 *(.scommon*)
 *(.scommon.*)
 *(COMMON)
                0x00000000040019f0                . = ALIGN (0x4)
                0x00000000040019f0                _bss_end = ABSOLUTE (.)

.heap           0x00000000040019f0      0xd16 load address 0x000000000008b9f4
                0x00000000040019f0                _heap_start = ABSOLUTE (.)
                0x0000000004002706                . = (. + _minimum_heap_size)
 *fill*         0x00000000040019f0      0xd16 00

.stack          0x0000000004007800      0x800 load address 0x0000000000091804
                0x0000000004007800                _heap_end = ABSOLUTE (.)
                0x0000000004007800                _stack_low_water_mark = ABSOLUTE (.)
                0x0000000004008000                . = (. + _stack_size)
 *fill*         0x0000000004007800      0x800 00

.test           0x000000000008a060        0x1
                0x000000000008a060        0x1 BYTE 0xff
                0x000000000008a050                _flash_data_start = LOADADDR (.data)
                0x0000000000000010                _ram_data_len = (((_ram_data_end - _ram_data_start) + 0x3) & 0xfffffffffffffffc)
                0x0000000000001994                _bss_len = (((_bss_end - _bss_start) + 0x3) & 0xfffffffffffffffc)
                0x000000000000a060                _image_len = ((((_flash_end - _flash_start) + _ram_data_len) + 0x3) & 0xfffffffffffffffc)
                0x0000000004008000                _ram_top = (ABSOLUTE (ORIGIN (ram)) + 0x7fb4)
                0x0000000004008000                ram_top = (ABSOLUTE (ORIGIN (ram)) + 0x7fb4)
                0x0000000001001580                _app_ram_start = 0x1001580
                0x000000000400004c                PROVIDE (_heap_location, u32HeapStart)
                0x000000000400004c                PROVIDE (heap_location, u32HeapStart)
                0x000000000008721f                TSV_eOpenVector = TSV_eOpen
                0x0000000000086da0                TSV_eStartVector = TSV_eStart
                0x0000000000088962                TSV_eStopVector = TSV_eStop
                0x0000000000089251                pvAppApiGetMacHandle = pvAppApiDefGetMacHandle
                0x00000000000845e6                u32AppApiInit = u32AppApiDefInit
                0x0000000000089226                vAppApiMlmeRequest = vAppApiDefMlmeRequest
                0x00000000000891fb                vAppApiMcpsRequest = vAppApiDefMcpsRequest
                0x00000000000890d3                eAppApiPlmeSet = eAppApiDefPlmeSet
                0x0000000000087431                eAppApiPlmeGet = eAppApiDefPlmeGet
                0x0000000000087428                pvAppApiGetMacAddrLocation = pvAppApiDefGetMacAddrLocation
                0x00000000000872f8                vAppApiSaveMacSettings = vAppApiDefSaveMacSettings
                0x0000000000087227                vAppApiRestoreMacSettings = vAppApiDefRestoreMacSettings
OUTPUT(objs_BLUE/Current-Test_Main_BLUE_L1200_V0-1-1.elf elf32-ba)

.comment        0x0000000000000000       0x11
 .comment       0x0000000000000000       0x12 C:\Users\Maeoka\AppData\Local\Temp\ccb3FIZH.ltrans0.ltrans.o
 .comment       0x0000000000000000       0x12 C:\Users\Maeoka\AppData\Local\Temp\ccb3FIZH.ltrans1.ltrans.o
 .comment       0x0000000000000000       0x12 C:\Users\Maeoka\AppData\Local\Temp\ccb3FIZH.ltrans2.ltrans.o
 .comment       0x0000000000000000       0x12 C:\Users\Maeoka\AppData\Local\Temp\ccb3FIZH.ltrans3.ltrans.o
 .comment       0x0000000000000000       0x12 C:\Users\Maeoka\AppData\Local\Temp\ccb3FIZH.ltrans4.ltrans.o
 .comment       0x0000000000000000       0x12 C:\Users\Maeoka\AppData\Local\Temp\ccb3FIZH.ltrans5.ltrans.o
 .comment       0x0000000000000000       0x12 C:\Users\Maeoka\AppData\Local\Temp\ccb3FIZH.ltrans6.ltrans.o
 .comment       0x0000000000000000       0x12 C:\Users\Maeoka\AppData\Local\Temp\ccb3FIZH.ltrans7.ltrans.o
 .comment       0x0000000000000000       0x12 C:\Users\Maeoka\AppData\Local\Temp\ccb3FIZH.ltrans8.ltrans.o
 .comment       0x0000000000000000       0x12 C:\Users\Maeoka\AppData\Local\Temp\ccb3FIZH.ltrans9.ltrans.o
 .comment       0x0000000000000000       0x12 C:\Users\Maeoka\AppData\Local\Temp\ccb3FIZH.ltrans10.ltrans.o
 .comment       0x0000000000000000       0x12 C:\Users\Maeoka\AppData\Local\Temp\ccb3FIZH.ltrans11.ltrans.o
 .comment       0x0000000000000000       0x12 C:\Users\Maeoka\AppData\Local\Temp\ccb3FIZH.ltrans12.ltrans.o
 .comment       0x0000000000000000       0x12 C:\Users\Maeoka\AppData\Local\Temp\ccb3FIZH.ltrans13.ltrans.o
 .comment       0x0000000000000000       0x12 C:\Users\Maeoka\AppData\Local\Temp\ccb3FIZH.ltrans14.ltrans.o
 .comment       0x0000000000000000       0x12 c:/mwsdk/tools/ba-elf-ba2-r36379/bin/../lib/gcc/ba-elf/4.7.4/../../../../ba-elf/lib/mcpu_jn51xx_sizeopt\libc.a(lib_a-memcmp.o)
 .comment       0x0000000000000000       0x12 c:/mwsdk/tools/ba-elf-ba2-r36379/bin/../lib/gcc/ba-elf/4.7.4/../../../../ba-elf/lib/mcpu_jn51xx_sizeopt\libc.a(lib_a-memcpy.o)
 .comment       0x0000000000000000       0x12 c:/mwsdk/tools/ba-elf-ba2-r36379/bin/../lib/gcc/ba-elf/4.7.4/../../../../ba-elf/lib/mcpu_jn51xx_sizeopt\libc.a(lib_a-memset.o)
 .comment       0x0000000000000000       0x11 c:/MWSDK/ChipLib/SW4063V1416/Components/Library\libMicroSpecific_JN516x.a(MicroSyscall_ba.o)
                                         0x12 (size before relaxing)

.debug_info     0x0000000000000000      0x596
 .debug_info    0x0000000000000000       0xf3 c:/mwsdk/tools/ba-elf-ba2-r36379/bin/../lib/gcc/ba-elf/4.7.4/../../../../ba-elf/lib/mcpu_jn51xx_sizeopt\libc.a(lib_a-memcmp.o)
 .debug_info    0x00000000000000f3      0x106 c:/mwsdk/tools/ba-elf-ba2-r36379/bin/../lib/gcc/ba-elf/4.7.4/../../../../ba-elf/lib/mcpu_jn51xx_sizeopt\libc.a(lib_a-memcpy.o)
 .debug_info    0x00000000000001f9       0xd7 c:/mwsdk/tools/ba-elf-ba2-r36379/bin/../lib/gcc/ba-elf/4.7.4/../../../../ba-elf/lib/mcpu_jn51xx_sizeopt\libc.a(lib_a-memset.o)
 .debug_info    0x00000000000002d0       0xb4 c:/mwsdk/tools/ba-elf-ba2-r36379/bin/../lib/gcc/ba-elf/4.7.4/mcpu_jn51xx_sizeopt\libgcc.a(__udivsi3.o)
 .debug_info    0x0000000000000384       0xb4 c:/mwsdk/tools/ba-elf-ba2-r36379/bin/../lib/gcc/ba-elf/4.7.4/mcpu_jn51xx_sizeopt\libgcc.a(__divsi3.o)
 .debug_info    0x0000000000000438       0xb4 c:/mwsdk/tools/ba-elf-ba2-r36379/bin/../lib/gcc/ba-elf/4.7.4/mcpu_jn51xx_sizeopt\libgcc.a(__umodsi3.o)
 .debug_info    0x00000000000004ec       0xaa c:/MWSDK/ChipLib/SW4063V1416/Components/Library\libBoot_JN516x.a(ExceptionHandler.o)

.debug_abbrev   0x0000000000000000      0x210
 .debug_abbrev  0x0000000000000000       0x8e c:/mwsdk/tools/ba-elf-ba2-r36379/bin/../lib/gcc/ba-elf/4.7.4/../../../../ba-elf/lib/mcpu_jn51xx_sizeopt\libc.a(lib_a-memcmp.o)
 .debug_abbrev  0x000000000000008e       0xa4 c:/mwsdk/tools/ba-elf-ba2-r36379/bin/../lib/gcc/ba-elf/4.7.4/../../../../ba-elf/lib/mcpu_jn51xx_sizeopt\libc.a(lib_a-memcpy.o)
 .debug_abbrev  0x0000000000000132       0x8e c:/mwsdk/tools/ba-elf-ba2-r36379/bin/../lib/gcc/ba-elf/4.7.4/../../../../ba-elf/lib/mcpu_jn51xx_sizeopt\libc.a(lib_a-memset.o)
 .debug_abbrev  0x00000000000001c0       0x14 c:/mwsdk/tools/ba-elf-ba2-r36379/bin/../lib/gcc/ba-elf/4.7.4/mcpu_jn51xx_sizeopt\libgcc.a(__udivsi3.o)
 .debug_abbrev  0x00000000000001d4       0x14 c:/mwsdk/tools/ba-elf-ba2-r36379/bin/../lib/gcc/ba-elf/4.7.4/mcpu_jn51xx_sizeopt\libgcc.a(__divsi3.o)
 .debug_abbrev  0x00000000000001e8       0x14 c:/mwsdk/tools/ba-elf-ba2-r36379/bin/../lib/gcc/ba-elf/4.7.4/mcpu_jn51xx_sizeopt\libgcc.a(__umodsi3.o)
 .debug_abbrev  0x00000000000001fc       0x14 c:/MWSDK/ChipLib/SW4063V1416/Components/Library\libBoot_JN516x.a(ExceptionHandler.o)

.debug_loc      0x0000000000000000       0xeb
 .debug_loc     0x0000000000000000       0x73 c:/mwsdk/tools/ba-elf-ba2-r36379/bin/../lib/gcc/ba-elf/4.7.4/../../../../ba-elf/lib/mcpu_jn51xx_sizeopt\libc.a(lib_a-memcmp.o)
 .debug_loc     0x0000000000000073       0x39 c:/mwsdk/tools/ba-elf-ba2-r36379/bin/../lib/gcc/ba-elf/4.7.4/../../../../ba-elf/lib/mcpu_jn51xx_sizeopt\libc.a(lib_a-memcpy.o)
 .debug_loc     0x00000000000000ac       0x3f c:/mwsdk/tools/ba-elf-ba2-r36379/bin/../lib/gcc/ba-elf/4.7.4/../../../../ba-elf/lib/mcpu_jn51xx_sizeopt\libc.a(lib_a-memset.o)

.debug_aranges  0x0000000000000000       0xe0
 .debug_aranges
                0x0000000000000000       0x20 c:/mwsdk/tools/ba-elf-ba2-r36379/bin/../lib/gcc/ba-elf/4.7.4/../../../../ba-elf/lib/mcpu_jn51xx_sizeopt\libc.a(lib_a-memcmp.o)
 .debug_aranges
                0x0000000000000020       0x20 c:/mwsdk/tools/ba-elf-ba2-r36379/bin/../lib/gcc/ba-elf/4.7.4/../../../../ba-elf/lib/mcpu_jn51xx_sizeopt\libc.a(lib_a-memcpy.o)
 .debug_aranges
                0x0000000000000040       0x20 c:/mwsdk/tools/ba-elf-ba2-r36379/bin/../lib/gcc/ba-elf/4.7.4/../../../../ba-elf/lib/mcpu_jn51xx_sizeopt\libc.a(lib_a-memset.o)
 .debug_aranges
                0x0000000000000060       0x20 c:/mwsdk/tools/ba-elf-ba2-r36379/bin/../lib/gcc/ba-elf/4.7.4/mcpu_jn51xx_sizeopt\libgcc.a(__udivsi3.o)
 .debug_aranges
                0x0000000000000080       0x20 c:/mwsdk/tools/ba-elf-ba2-r36379/bin/../lib/gcc/ba-elf/4.7.4/mcpu_jn51xx_sizeopt\libgcc.a(__divsi3.o)
 .debug_aranges
                0x00000000000000a0       0x20 c:/mwsdk/tools/ba-elf-ba2-r36379/bin/../lib/gcc/ba-elf/4.7.4/mcpu_jn51xx_sizeopt\libgcc.a(__umodsi3.o)
 .debug_aranges
                0x00000000000000c0       0x20 c:/MWSDK/ChipLib/SW4063V1416/Components/Library\libBoot_JN516x.a(ExceptionHandler.o)

.debug_line     0x0000000000000000      0xe6e
 .debug_line    0x0000000000000000      0x154 c:/mwsdk/tools/ba-elf-ba2-r36379/bin/../lib/gcc/ba-elf/4.7.4/../../../../ba-elf/lib/mcpu_jn51xx_sizeopt\libc.a(lib_a-memcmp.o)
 .debug_line    0x0000000000000154      0x148 c:/mwsdk/tools/ba-elf-ba2-r36379/bin/../lib/gcc/ba-elf/4.7.4/../../../../ba-elf/lib/mcpu_jn51xx_sizeopt\libc.a(lib_a-memcpy.o)
 .debug_line    0x000000000000029c      0x13e c:/mwsdk/tools/ba-elf-ba2-r36379/bin/../lib/gcc/ba-elf/4.7.4/../../../../ba-elf/lib/mcpu_jn51xx_sizeopt\libc.a(lib_a-memset.o)
 .debug_line    0x00000000000003da      0x47b c:/mwsdk/tools/ba-elf-ba2-r36379/bin/../lib/gcc/ba-elf/4.7.4/mcpu_jn51xx_sizeopt\libgcc.a(__udivsi3.o)
 .debug_line    0x0000000000000855       0xbb c:/mwsdk/tools/ba-elf-ba2-r36379/bin/../lib/gcc/ba-elf/4.7.4/mcpu_jn51xx_sizeopt\libgcc.a(__divsi3.o)
 .debug_line    0x0000000000000910      0x3c7 c:/mwsdk/tools/ba-elf-ba2-r36379/bin/../lib/gcc/ba-elf/4.7.4/mcpu_jn51xx_sizeopt\libgcc.a(__umodsi3.o)
 .debug_line    0x0000000000000cd7      0x197 c:/MWSDK/ChipLib/SW4063V1416/Components/Library\libBoot_JN516x.a(ExceptionHandler.o)

.debug_str      0x0000000000000000      0x1bf
 .debug_str     0x0000000000000000      0x119 c:/mwsdk/tools/ba-elf-ba2-r36379/bin/../lib/gcc/ba-elf/4.7.4/../../../../ba-elf/lib/mcpu_jn51xx_sizeopt\libc.a(lib_a-memcmp.o)
                                        0x152 (size before relaxing)
 .debug_str     0x0000000000000119       0x5d c:/mwsdk/tools/ba-elf-ba2-r36379/bin/../lib/gcc/ba-elf/4.7.4/../../../../ba-elf/lib/mcpu_jn51xx_sizeopt\libc.a(lib_a-memcpy.o)
                                        0x166 (size before relaxing)
 .debug_str     0x0000000000000176       0x49 c:/mwsdk/tools/ba-elf-ba2-r36379/bin/../lib/gcc/ba-elf/4.7.4/../../../../ba-elf/lib/mcpu_jn51xx_sizeopt\libc.a(lib_a-memset.o)
                                        0x152 (size before relaxing)

.debug_frame    0x0000000000000000       0x60
 .debug_frame   0x0000000000000000       0x20 c:/mwsdk/tools/ba-elf-ba2-r36379/bin/../lib/gcc/ba-elf/4.7.4/../../../../ba-elf/lib/mcpu_jn51xx_sizeopt\libc.a(lib_a-memcmp.o)
 .debug_frame   0x0000000000000020       0x20 c:/mwsdk/tools/ba-elf-ba2-r36379/bin/../lib/gcc/ba-elf/4.7.4/../../../../ba-elf/lib/mcpu_jn51xx_sizeopt\libc.a(lib_a-memcpy.o)
 .debug_frame   0x0000000000000040       0x20 c:/mwsdk/tools/ba-elf-ba2-r36379/bin/../lib/gcc/ba-elf/4.7.4/../../../../ba-elf/lib/mcpu_jn51xx_sizeopt\libc.a(lib_a-memset.o)
