Archive member included because of file (symbol)

c:/MWSDK/Wks_TWELITE/Current-Test/../../TWENET/L1200/lib/libTWENET_BLUE.a(ToCoNet_event.o)
                              objs_BLUE/Main.o (symbol from plugin) (PRSEV_u8Register)
c:/MWSDK/Wks_TWELITE/Current-Test/../../TWENET/L1200/lib/libTWENET_BLUE.a(ToCoNet_main.o)
                              ToCoNet_event.o (symbol from plugin) (u32TickCount_ms)
c:/MWSDK/Wks_TWELITE/Current-Test/../../TWENET/L1200/lib/libTWENET_BLUE.a(ToCoNet_utils.o)
                              ToCoNet_main.o (symbol from plugin) (ToCoNet_u32GetVersion)
c:/MWSDK/Wks_TWELITE/Current-Test/../../TWENET/L1200/lib/libTWENET_BLUE.a(ToCoNet_mod_Tx.o)
                              objs_BLUE/Main.o (symbol from plugin) (ToCoNet_vReg_mod_Tx_Standard)
c:/MWSDK/Wks_TWELITE/Current-Test/../../TWENET/L1200/lib/libTWENET_BLUE.a(ToCoNet_mod_TxRxQueue.o)
                              objs_BLUE/Main.o (symbol from plugin) (ToCoNet_vReg_mod_TxRxQueueMid)
c:/MWSDK/Wks_TWELITE/Current-Test/../../TWENET/L1200/lib/libTWENET_BLUE.a(ToCoNet_mod_Nwk_Common.o)
                              ToCoNet_main.o (symbol from plugin) (ToCoNet_vRxProc_Mod)
c:/MWSDK/Wks_TWELITE/Current-Test/../../TWENET/L1200/lib/libTWENET_BLUE.a(ToCoNet_mod_Channel_Mgr.o)
                              ToCoNet_mod_Tx.o (symbol from plugin) (ToCoNet_ChMgr_bCh_OnTx)
c:/MWSDK/Wks_TWELITE/Current-Test/../../TWENET/L1200/lib/libTWENET_BLUE.a(Version.o)
                              ToCoNet_utils.o (symbol from plugin) (au8ToCoNetVersionInfo)
c:/MWSDK/Wks_TWELITE/Current-Test/../../TWENET/L1200/lib/libTWENET_BLUE.a(AppQueueApi_ToCoNet.o)
                              ToCoNet_main.o (symbol from plugin) (u32AppQApiInitInt_PATCH)
c:/MWSDK/Wks_TWELITE/Current-Test/../../TWENET/L1200/lib/libTWENEText_BLUE.a(AppStart.o)
                              (AppColdStart)
c:/MWSDK/Wks_TWELITE/Current-Test/../../TWENET/L1200/lib/libTWENEText_BLUE.a(getMacAddr.o)
                              ToCoNet_main.o (symbol from plugin) (ToCoNet_u32GetSerialOnBoot)
c:/MWSDK/Wks_TWELITE/Current-Test/../../TWENET/L1200/lib/libTWENEText_BLUE.a(mac.o)
                              ToCoNet_main.o (symbol from plugin) (Mac_vInit)
c:/MWSDK/Wks_TWELITE/Current-Test/../../TWENET/L1200/lib/libTWENEText_BLUE.a(AES_CCM.o)
                              AppStart.o (symbol from plugin) (bAES_CCM_KeyReg)
c:/MWSDK/Wks_TWELITE/Current-Test/../../TWENET/L1200/lib/libTWENEText_BLUE.a(no_ack_handler.o)
                              AppStart.o (symbol from plugin) (vInstallNoAckHandler)
c:/MWSDK/Wks_TWELITE/Current-Test/../../TWENET/L1200/lib/libTWENEText_BLUE.a(Version.o)
                              ToCoNet_utils.o (symbol from plugin) (au8ToCoNetExtVersionInfo)
c:/MWSDK/Wks_TWELITE/Current-Test/../../TWENET/L1200/lib/libTWENETutils_BLUE.a(serial.o)
                              objs_BLUE/Main.o (symbol from plugin) (SERIAL_vInit)
c:/MWSDK/Wks_TWELITE/Current-Test/../../TWENET/L1200/lib/libTWENETutils_BLUE.a(uart.o)
                              serial.o (symbol from plugin) (UART_vInit)
c:/MWSDK/Wks_TWELITE/Current-Test/../../TWENET/L1200/lib/libTWENETutils_BLUE.a(ByteQueue.o)
                              ToCoNet_main.o (symbol from plugin) (QUEUE__vInit)
c:/MWSDK/Wks_TWELITE/Current-Test/../../TWENET/L1200/lib/libTWENETutils_BLUE.a(ccitt8.o)
                              AppStart.o (symbol from plugin) (u8CCITT8)
c:/MWSDK/Wks_TWELITE/Current-Test/../../TWENET/L1200/lib/libTWENETutils_BLUE.a(fprintf.o)
                              objs_BLUE/Main.o (symbol from plugin) (vfPrintf)
c:/MWSDK/Wks_TWELITE/Current-Test/../../TWENET/L1200/lib/libTWENETutils_BLUE.a(sprintf.o)
                              objs_BLUE/Main.o (symbol from plugin) (SPRINTF_vInit128)
c:/MWSDK/Wks_TWELITE/Current-Test/../../TWENET/L1200/lib/libTWENETutils_BLUE.a(utils.o)
                              ToCoNet_main.o (symbol from plugin) (vTimerConfig)
c:/MWSDK/Wks_TWELITE/Current-Test/../../TWENET/L1200/lib/libTWENETutils_BLUE.a(ccm.o)
                              AES_CCM.o (symbol from plugin) (ccm_init_and_key)
c:/MWSDK/Wks_TWELITE/Current-Test/../../TWENET/L1200/lib/libTWENETutils_BLUE.a(Version.o)
                              ToCoNet_utils.o (symbol from plugin) (au8ToCoNetUtilsVersionInfo)
c:/MWSDK/Wks_TWELITE/Current-Test/../../TWENET/L1200/lib/libTWENETutils_BLUE.a(aescrypt.o)
                              ccm.o (symbol from plugin) (aes_encrypt)
c:/MWSDK/Wks_TWELITE/Current-Test/../../TWENET/L1200/lib/libTWENETutils_BLUE.a(aeskey.o)
                              ccm.o (symbol from plugin) (aes_encrypt_key)
c:/MWSDK/Wks_TWELITE/Current-Test/../../TWENET/L1200/lib/libTWENETutils_BLUE.a(aestab.o)
                              aeskey.o (symbol from plugin) (t_im)
c:/MWSDK/ChipLib/SW4063V1416/Components/Library\libAppApi_JN516x.a(AppApi.o)
                              (pvAppApiDefGetMacHandle)
c:/MWSDK/ChipLib/SW4063V1416/Components/Library\libAppApi_JN516x.a(AppApiSleep.o)
                              (vAppApiDefSaveMacSettings)
c:/MWSDK/ChipLib/SW4063V1416/Components/Library\libMAC_JN516x.a(mac_main.o)
                              AppApi.o (symbol from plugin) (MAC_pvCtor)
c:/MWSDK/ChipLib/SW4063V1416/Components/Library\libMAC_JN516x.a(mac_mcps.o)
                              AppApi.o (symbol from plugin) (MAC_vHandleMcpsReqRsp)
c:/MWSDK/ChipLib/SW4063V1416/Components/Library\libMAC_JN516x.a(mac_mlme.o)
                              AppApi.o (symbol from plugin) (MAC_vHandleMlmeReqRsp)
c:/MWSDK/ChipLib/SW4063V1416/Components/Library\libMAC_JN516x.a(mac_pib.o)
                              AppStart.o (symbol from plugin) (MAC_psPibGetHandle)
c:/MWSDK/ChipLib/SW4063V1416/Components/Library\libMAC_JN516x.a(mac_pib_mlme.o)
                              mac_main.o (symbol from plugin) (mac_vPibSetDefaults)
c:/MWSDK/ChipLib/SW4063V1416/Components/Library\libMAC_JN516x.a(mac_pmic.o)
                              mac_main.o (symbol from plugin) (vPMICreset)
c:/MWSDK/ChipLib/SW4063V1416/Components/Library\libMAC_JN516x.a(mac_ind.o)
                              AppApi.o (symbol from plugin) (MAC_vRegisterMlmeDcfmIndCallbacks)
c:/MWSDK/ChipLib/SW4063V1416/Components/Library\libMAC_JN516x.a(mac_scan.o)
                              mac_main.o (symbol from plugin) (mac_eScanInit)
c:/MWSDK/ChipLib/SW4063V1416/Components/Library\libMAC_JN516x.a(mac_lp.o)
                              mac_pmic.o (symbol from plugin) (g_sLP)
c:/MWSDK/ChipLib/SW4063V1416/Components/Library\libMAC_JN516x.a(MCPS.o)
                              mac_mcps.o (symbol from plugin) (vTAM_MCPSdataRequest)
c:/MWSDK/ChipLib/SW4063V1416/Components/Library\libMAC_JN516x.a(phy_pib.o)
                              AppApi.o (symbol from plugin) (phy_ePibGet)
c:/MWSDK/ChipLib/SW4063V1416/Components/Library\libMAC_JN516x.a(TAM.o)
                              MCPS.o (symbol from plugin) (bTAMinPAN)
c:/MWSDK/ChipLib/SW4063V1416/Components/Library\libMAC_JN516x.a(TAMCO.o)
                              TAM.o (symbol from plugin) (vTAMCOsetCoordinator)
c:/MWSDK/ChipLib/SW4063V1416/Components/Library\libMAC_JN516x.a(TAMDE.o)
                              TAM.o (symbol from plugin) (vTAMDEdetermineNullState)
c:/MWSDK/ChipLib/SW4063V1416/Components/Library\libMAC_JN516x.a(TAM_MEM.o)
                              TAM.o (symbol from plugin) (vMEMreset)
c:/MWSDK/ChipLib/SW4063V1416/Components/Library\libMAC_JN516x.a(TAM_MLME.o)
                              mac_scan.o (symbol from plugin) (vMLMEbeaconNotify)
c:/MWSDK/ChipLib/SW4063V1416/Components/Library\libMAC_JN516x.a(TAM_TAH.o)
                              TAMCO.o (symbol from plugin) (vTAHsetCutOff)
c:/MWSDK/ChipLib/SW4063V1416/Components/Library\libMAC_JN516x.a(TAM_TAI.o)
                              TAM.o (symbol from plugin) (vTAIsetCapTime)
c:/MWSDK/ChipLib/SW4063V1416/Components/Library\libMAC_JN516x.a(TAM_TAT.o)
                              TAMDE.o (symbol from plugin) (vTATstartReceiveAt)
c:/MWSDK/ChipLib/SW4063V1416/Components/Library\libMAC_JN516x.a(TAMcommon.o)
                              mac_scan.o (symbol from plugin) (bTACassessBeaconForPayload)
c:/MWSDK/ChipLib/SW4063V1416/Components/Library\libMAC_JN516x.a(TAMevent.o)
                              mac_lp.o (symbol from plugin) (vTAMinsertEvent)
c:/MWSDK/ChipLib/SW4063V1416/Components/Library\libMAC_JN516x.a(TAMqueue.o)
                              TAMcommon.o (symbol from plugin) (vTAQaddToFifo)
c:/MWSDK/ChipLib/SW4063V1416/Components/Library\libMAC_JN516x.a(TAMrxEnable.o)
                              TAMevent.o (symbol from plugin) (vTAMRXEint2Fired)
c:/MWSDK/ChipLib/SW4063V1416/Components/Library\libMAC_JN516x.a(TAMsecurity.o)
                              TAMcommon.o (symbol from plugin) (vTSCgetIncomingInfo)
c:/MWSDK/ChipLib/SW4063V1416/Components/Library\libMAC_JN516x.a(TAMsideways.o)
                              mac_pmic.o (symbol from plugin) (eTAStransmitRequest)
c:/MWSDK/ChipLib/SW4063V1416/Components/Library\libMAC_JN516x.a(TAMtime.o)
                              TAM.o (symbol from plugin) (vTTIBLETimerExpired)
c:/MWSDK/ChipLib/SW4063V1416/Components/Library\libMAC_JN516x.a(TAM_AES.o)
                              TAMsecurity.o (symbol from plugin) (u8TAM_AES_WriteAuxilliarySecurityHeaderIntoBuffer)
c:/MWSDK/ChipLib/SW4063V1416/Components/Library\libMAC_JN516x.a(Endian.o)
                              TAM_AES.o (symbol from plugin) (vFromU16ToLe)
c:/MWSDK/ChipLib/SW4063V1416/Components/Library\libMAC_JN516x.a(mac_acl.o)
                              TAMsecurity.o (symbol from plugin) (MAC_u8AclFindInfo)
c:/MWSDK/ChipLib/SW4063V1416/Components/Library\libMAC_JN516x.a(mac_misc.o)
                              mac_mlme.o (symbol from plugin) (vMAC_MISCpollRequest)
c:/MWSDK/ChipLib/SW4063V1416/Components/Library\libTimerServer_JN516x.a(tsv_main.o)
                              AppApiSleep.o (symbol from plugin) (s_sTimerList)
c:/MWSDK/ChipLib/SW4063V1416/Components/Library\libXcv_JN516x.a(xcv_main.o)
                              AppApi.o (symbol from plugin) (XCV_vCtor)
c:/MWSDK/ChipLib/SW4063V1416/Components/Library\libXcv_JN516x.a(xcv_access.o)
                              mac_main.o (symbol from plugin) (XCV_vDevWriteIER)
c:/MWSDK/ChipLib/SW4063V1416/Components/Library\libXcv_JN516x.a(xcv_isr.o)
                              AppApi.o (symbol from plugin) (vXCV_IntHandlerPhy)
c:/MWSDK/ChipLib/SW4063V1416/Components/Library\libAes_JN516x.a(AEScoprocessorCCM.o)
                              AES_CCM.o (symbol from plugin) (bACI_CCMstar)
c:/MWSDK/ChipLib/SW4063V1416/Components/Library\libAes_JN516x.a(AES_CCM_Star.o)
                              TAM_AES.o (symbol from plugin) (vACI_OptimisedCcmStar)
c:/MWSDK/ChipLib/SW4063V1416/Components/Library\libAes_JN516x.a(AEScoprocessorAPI.o)
                              AES_CCM_Star.o (symbol from plugin) (vACI_CmdWaitBusy)
c:/MWSDK/ChipLib/SW4063V1416/Components/Library\libHardwareApi_JN516x.a(AHI_Analogue.o)
                              objs_BLUE/Main.o (symbol from plugin) (bAHI_APRegulatorEnabled)
c:/MWSDK/ChipLib/SW4063V1416/Components/Library\libHardwareApi_JN516x.a(AHI_BrownOut.o)
                              objs_BLUE/Main.o (symbol from plugin) (vAHI_BrownOutConfigure)
c:/MWSDK/ChipLib/SW4063V1416/Components/Library\libHardwareApi_JN516x.a(AHI_Dio.o)
                              ToCoNet_main.o (symbol from plugin) (vAHI_DioSetPullup)
c:/MWSDK/ChipLib/SW4063V1416/Components/Library\libHardwareApi_JN516x.a(AHI_Reset.o)
                              ToCoNet_main.o (symbol from plugin) (vAHI_SwReset)
c:/MWSDK/ChipLib/SW4063V1416/Components/Library\libHardwareApi_JN516x.a(AHI_Spi.o)
                              AppQueueApi_ToCoNet.o (symbol from plugin) (vAHI_SpiRegisterCallback)
c:/MWSDK/ChipLib/SW4063V1416/Components/Library\libHardwareApi_JN516x.a(AHI_System.o)
                              AppApiSleep.o (symbol from plugin) (u8AHI_PowerStatus)
c:/MWSDK/ChipLib/SW4063V1416/Components/Library\libHardwareApi_JN516x.a(AHI_Timer.o)
                              utils.o (symbol from plugin) (vAHI_TimerEnable)
c:/MWSDK/ChipLib/SW4063V1416/Components/Library\libHardwareApi_JN516x.a(AHI_TimerInt.o)
                              AppQueueApi_ToCoNet.o (symbol from plugin) (vAHI_Timer0RegisterCallback)
c:/MWSDK/ChipLib/SW4063V1416/Components/Library\libHardwareApi_JN516x.a(AHI_Uart.o)
                              uart.o (symbol from plugin) (vAHI_UartSetBaudDivisor)
c:/MWSDK/ChipLib/SW4063V1416/Components/Library\libHardwareApi_JN516x.a(AHI_WakeTimer.o)
                              ToCoNet_utils.o (symbol from plugin) (vAHI_WakeTimerEnable)
c:/MWSDK/ChipLib/SW4063V1416/Components/Library\libHardwareApi_JN516x.a(AHI_Flash.o)
                              AHI_System.o (symbol from plugin) (vAHI_FlashAndEEPROMControllerIntHandler)
c:/MWSDK/ChipLib/SW4063V1416/Components/Library\libHardwareApi_JN516x.a(AHI_Infrared.o)
                              AHI_TimerInt.o (symbol from plugin) (vAHI_IntHandlerInfrared)
c:/MWSDK/ChipLib/SW4063V1416/Components/Library\libHardwareApi_JN516x.a(InternalFlashApi.o)
                              AHI_Flash.o (symbol from plugin) (bFlashErase)
c:/MWSDK/ChipLib/SW4063V1416/Components/Library\libHardwareApi_JN516x.a(AHI_FlashIndexSector.o)
                              AppStart.o (symbol from plugin) (bAHI_ReadMACID)
c:/MWSDK/ChipLib/SW4063V1416/Components/Library\libHardwareApi_JN516x.a(AHI_Si.o)
                              AppQueueApi_ToCoNet.o (symbol from plugin) (vAHI_SiRegisterCallback)
c:/MWSDK/ChipLib/SW4063V1416/Components/Library\libHardwareApi_JN516x.a(AHI_TickTimer.o)
                              AppQueueApi_ToCoNet.o (symbol from plugin) (vAHI_TickTimerInit)
c:/MWSDK/ChipLib/SW4063V1416/Components/Library\libHardwareApi_JN516x.a(AHI_Interrupt.o)
                              AppApi.o (symbol from plugin) (vAHI_InterruptSetPriority)
c:/MWSDK/ChipLib/SW4063V1416/Components/Library\libHardwareApi_JN516x.a(AHI_Init.o)
                              AppStart.o (symbol from plugin) (u32AHI_Init)
c:/MWSDK/ChipLib/SW4063V1416/Components/Library\libHardwareApi_JN516x.a(AHI_SpiSlave.o)
                              AHI_Init.o (symbol from plugin) (vAHI_IntHandlerSpiSlave)
c:/MWSDK/ChipLib/SW4063V1416/Components/Library\libMicroSpecific_JN516x.a(MicroInt_ba.o)
                              serial.o (symbol from plugin) (vMicroIntEnableOnly)
c:/MWSDK/ChipLib/SW4063V1416/Components/Library\libMicroSpecific_JN516x.a(MicroSyscall_ba.o)
                              AHI_Reset.o (symbol from plugin) (vMicroSyscall)
c:/MWSDK/ChipLib/SW4063V1416/Components/Library\libBoot_JN516x.a(Heap.o)
                              (u32HeapStart)
c:/MWSDK/ChipLib/SW4063V1416/Components/Library\libBoot_JN516x.a(ExceptionHandler.o)
                              (_exception_external_interrupt)
c:/MWSDK/ChipLib/SW4063V1416/Components/Library\libAppApi_JN516x.a(AppHousekeeping.o)
                              mac_scan.o (symbol from plugin) (sAppHousekeeping)
c:/MWSDK/ChipLib/SW4063V1416/Components/Library\libAes_JN516x.a(AEScoprocessorAPIinterrupts.o)
                              AHI_Init.o (symbol from plugin) (vACI_IntHandlerAes)
c:/mwsdk/tools/ba-elf-ba2-r36379/bin/../lib/gcc/ba-elf/4.7.4/../../../../ba-elf/lib/mcpu_jn51xx_sizeopt\libc.a(lib_a-memcmp.o)
                              C:\Users\Maeoka\AppData\Local\Temp\ccqRG8OS.ltrans2.ltrans.o (memcmp)
c:/mwsdk/tools/ba-elf-ba2-r36379/bin/../lib/gcc/ba-elf/4.7.4/../../../../ba-elf/lib/mcpu_jn51xx_sizeopt\libc.a(lib_a-memcpy.o)
                              C:\Users\Maeoka\AppData\Local\Temp\ccqRG8OS.ltrans0.ltrans.o (memcpy)
c:/mwsdk/tools/ba-elf-ba2-r36379/bin/../lib/gcc/ba-elf/4.7.4/../../../../ba-elf/lib/mcpu_jn51xx_sizeopt\libc.a(lib_a-memset.o)
                              C:\Users\Maeoka\AppData\Local\Temp\ccqRG8OS.ltrans0.ltrans.o (memset)
c:/mwsdk/tools/ba-elf-ba2-r36379/bin/../lib/gcc/ba-elf/4.7.4/mcpu_jn51xx_sizeopt\libgcc.a(__udivsi3.o)
                              C:\Users\Maeoka\AppData\Local\Temp\ccqRG8OS.ltrans0.ltrans.o (__udivsi3)
c:/mwsdk/tools/ba-elf-ba2-r36379/bin/../lib/gcc/ba-elf/4.7.4/mcpu_jn51xx_sizeopt\libgcc.a(__divsi3.o)
                              C:\Users\Maeoka\AppData\Local\Temp\ccqRG8OS.ltrans3.ltrans.o (__divsi3)
c:/mwsdk/tools/ba-elf-ba2-r36379/bin/../lib/gcc/ba-elf/4.7.4/mcpu_jn51xx_sizeopt\libgcc.a(__umodsi3.o)
                              C:\Users\Maeoka\AppData\Local\Temp\ccqRG8OS.ltrans0.ltrans.o (__umodsi3)

Allocating common symbols
Common symbol       size              file

_TWENET_TX_POWER_MAX
                    0x1               AppStart.o (symbol from plugin)
apvHwIndBufferData  0x2c              AppQueueApi_ToCoNet.o (symbol from plugin)
prMAC_TofMlmeReqHandler
                    0x4               mac_mlme.o (symbol from plugin)
apvMlmeIndBufferData
                    0x14              AppQueueApi_ToCoNet.o (symbol from plugin)
_TWENET_TX_POWER_VALUE
                    0x1               AppStart.o (symbol from plugin)
g_tSpiConfiguration
                    0x4               AHI_Flash.o (symbol from plugin)
SPRINTF_Stream      0x4               sprintf.o (symbol from plugin)
prMAC_TofRxHandler  0x4               TAMcommon.o (symbol from plugin)
_MAC_u8TxFailReason
                    0x1               mac.o (symbol from plugin)
apvMcpsIndBufferData
                    0x14              AppQueueApi_ToCoNet.o (symbol from plugin)
bAHI_ExtendedTemperatureOperation
                    0x1               AHI_System.o (symbol from plugin)
bMAC_DiscardUnsuccessfulAssocResponses
                    0x1               mac_pmic.o (symbol from plugin)
u8Msq               0x1               TAM_TAT.o (symbol from plugin)
g_bLegacyHwBugEmulation
                    0x1               AES_CCM_Star.o (symbol from plugin)

Discarded input sections

 .text          0x0000000000000000        0x0 objs_BLUE/Main.o (symbol from plugin)
 .data          0x0000000000000000        0x0 C:\Users\Maeoka\AppData\Local\Temp\ccqRG8OS.ltrans1.ltrans.o
 .data          0x0000000000000000        0x0 C:\Users\Maeoka\AppData\Local\Temp\ccqRG8OS.ltrans2.ltrans.o
 .data          0x0000000000000000        0x0 C:\Users\Maeoka\AppData\Local\Temp\ccqRG8OS.ltrans3.ltrans.o
 .data          0x0000000000000000        0x0 C:\Users\Maeoka\AppData\Local\Temp\ccqRG8OS.ltrans4.ltrans.o
 .data          0x0000000000000000        0x0 C:\Users\Maeoka\AppData\Local\Temp\ccqRG8OS.ltrans5.ltrans.o
 .data          0x0000000000000000        0x0 C:\Users\Maeoka\AppData\Local\Temp\ccqRG8OS.ltrans6.ltrans.o
 .data          0x0000000000000000        0x0 C:\Users\Maeoka\AppData\Local\Temp\ccqRG8OS.ltrans7.ltrans.o
 .data          0x0000000000000000        0x0 C:\Users\Maeoka\AppData\Local\Temp\ccqRG8OS.ltrans8.ltrans.o
 .bss           0x0000000000000000        0x0 C:\Users\Maeoka\AppData\Local\Temp\ccqRG8OS.ltrans10.ltrans.o
 .data          0x0000000000000000        0x0 C:\Users\Maeoka\AppData\Local\Temp\ccqRG8OS.ltrans11.ltrans.o
 .data          0x0000000000000000        0x0 C:\Users\Maeoka\AppData\Local\Temp\ccqRG8OS.ltrans12.ltrans.o
 .data          0x0000000000000000        0x0 C:\Users\Maeoka\AppData\Local\Temp\ccqRG8OS.ltrans13.ltrans.o
 .data          0x0000000000000000        0x0 C:\Users\Maeoka\AppData\Local\Temp\ccqRG8OS.ltrans14.ltrans.o
 .data          0x0000000000000000        0x0 C:\Users\Maeoka\AppData\Local\Temp\ccqRG8OS.ltrans15.ltrans.o
 .data          0x0000000000000000        0x0 c:/mwsdk/tools/ba-elf-ba2-r36379/bin/../lib/gcc/ba-elf/4.7.4/../../../../ba-elf/lib/mcpu_jn51xx_sizeopt\libc.a(lib_a-memcmp.o)
 .bss           0x0000000000000000        0x0 c:/mwsdk/tools/ba-elf-ba2-r36379/bin/../lib/gcc/ba-elf/4.7.4/../../../../ba-elf/lib/mcpu_jn51xx_sizeopt\libc.a(lib_a-memcmp.o)
 .data          0x0000000000000000        0x0 c:/mwsdk/tools/ba-elf-ba2-r36379/bin/../lib/gcc/ba-elf/4.7.4/../../../../ba-elf/lib/mcpu_jn51xx_sizeopt\libc.a(lib_a-memcpy.o)
 .bss           0x0000000000000000        0x0 c:/mwsdk/tools/ba-elf-ba2-r36379/bin/../lib/gcc/ba-elf/4.7.4/../../../../ba-elf/lib/mcpu_jn51xx_sizeopt\libc.a(lib_a-memcpy.o)
 .data          0x0000000000000000        0x0 c:/mwsdk/tools/ba-elf-ba2-r36379/bin/../lib/gcc/ba-elf/4.7.4/../../../../ba-elf/lib/mcpu_jn51xx_sizeopt\libc.a(lib_a-memset.o)
 .bss           0x0000000000000000        0x0 c:/mwsdk/tools/ba-elf-ba2-r36379/bin/../lib/gcc/ba-elf/4.7.4/../../../../ba-elf/lib/mcpu_jn51xx_sizeopt\libc.a(lib_a-memset.o)
 .data          0x0000000000000000        0x0 c:/mwsdk/tools/ba-elf-ba2-r36379/bin/../lib/gcc/ba-elf/4.7.4/mcpu_jn51xx_sizeopt\libgcc.a(__udivsi3.o)
 .bss           0x0000000000000000        0x0 c:/mwsdk/tools/ba-elf-ba2-r36379/bin/../lib/gcc/ba-elf/4.7.4/mcpu_jn51xx_sizeopt\libgcc.a(__udivsi3.o)
 .data          0x0000000000000000        0x0 c:/mwsdk/tools/ba-elf-ba2-r36379/bin/../lib/gcc/ba-elf/4.7.4/mcpu_jn51xx_sizeopt\libgcc.a(__divsi3.o)
 .bss           0x0000000000000000        0x0 c:/mwsdk/tools/ba-elf-ba2-r36379/bin/../lib/gcc/ba-elf/4.7.4/mcpu_jn51xx_sizeopt\libgcc.a(__divsi3.o)
 .data          0x0000000000000000        0x0 c:/mwsdk/tools/ba-elf-ba2-r36379/bin/../lib/gcc/ba-elf/4.7.4/mcpu_jn51xx_sizeopt\libgcc.a(__umodsi3.o)
 .bss           0x0000000000000000        0x0 c:/mwsdk/tools/ba-elf-ba2-r36379/bin/../lib/gcc/ba-elf/4.7.4/mcpu_jn51xx_sizeopt\libgcc.a(__umodsi3.o)
 .text          0x0000000000000000        0x0 ToCoNet_event.o (symbol from plugin)
 .text          0x0000000000000000        0x0 ToCoNet_main.o (symbol from plugin)
 .text          0x0000000000000000        0x0 ToCoNet_utils.o (symbol from plugin)
 .text          0x0000000000000000        0x0 ToCoNet_mod_Tx.o (symbol from plugin)
 .text          0x0000000000000000        0x0 ToCoNet_mod_TxRxQueue.o (symbol from plugin)
 .text          0x0000000000000000        0x0 ToCoNet_mod_Nwk_Common.o (symbol from plugin)
 .text          0x0000000000000000        0x0 ToCoNet_mod_Channel_Mgr.o (symbol from plugin)
 .text          0x0000000000000000        0x0 Version.o (symbol from plugin)
 .text          0x0000000000000000        0x0 AppQueueApi_ToCoNet.o (symbol from plugin)
 .text          0x0000000000000000        0x0 AppStart.o (symbol from plugin)
 .text          0x0000000000000000        0x0 getMacAddr.o (symbol from plugin)
 .text          0x0000000000000000        0x0 mac.o (symbol from plugin)
 .text          0x0000000000000000        0x0 AES_CCM.o (symbol from plugin)
 .text          0x0000000000000000        0x0 no_ack_handler.o (symbol from plugin)
 .text          0x0000000000000000        0x0 Version.o (symbol from plugin)
 .text          0x0000000000000000        0x0 serial.o (symbol from plugin)
 .text          0x0000000000000000        0x0 uart.o (symbol from plugin)
 .text          0x0000000000000000        0x0 ByteQueue.o (symbol from plugin)
 .text          0x0000000000000000        0x0 ccitt8.o (symbol from plugin)
 .text          0x0000000000000000        0x0 fprintf.o (symbol from plugin)
 .text          0x0000000000000000        0x0 sprintf.o (symbol from plugin)
 .text          0x0000000000000000        0x0 utils.o (symbol from plugin)
 .text          0x0000000000000000        0x0 ccm.o (symbol from plugin)
 .text          0x0000000000000000        0x0 Version.o (symbol from plugin)
 .text          0x0000000000000000        0x0 aescrypt.o (symbol from plugin)
 .text          0x0000000000000000        0x0 aeskey.o (symbol from plugin)
 .text          0x0000000000000000        0x0 aestab.o (symbol from plugin)
 .text          0x0000000000000000        0x0 AppApi.o (symbol from plugin)
 .text          0x0000000000000000        0x0 AppApiSleep.o (symbol from plugin)
 .text          0x0000000000000000        0x0 mac_main.o (symbol from plugin)
 .text          0x0000000000000000        0x0 mac_mcps.o (symbol from plugin)
 .text          0x0000000000000000        0x0 mac_mlme.o (symbol from plugin)
 .text          0x0000000000000000        0x0 mac_pib.o (symbol from plugin)
 .text          0x0000000000000000        0x0 mac_pib_mlme.o (symbol from plugin)
 .text          0x0000000000000000        0x0 mac_pmic.o (symbol from plugin)
 .text          0x0000000000000000        0x0 mac_ind.o (symbol from plugin)
 .text          0x0000000000000000        0x0 mac_scan.o (symbol from plugin)
 .text          0x0000000000000000        0x0 mac_lp.o (symbol from plugin)
 .text          0x0000000000000000        0x0 MCPS.o (symbol from plugin)
 .text          0x0000000000000000        0x0 phy_pib.o (symbol from plugin)
 .text          0x0000000000000000        0x0 TAM.o (symbol from plugin)
 .text          0x0000000000000000        0x0 TAMCO.o (symbol from plugin)
 .text          0x0000000000000000        0x0 TAMDE.o (symbol from plugin)
 .text          0x0000000000000000        0x0 TAM_MEM.o (symbol from plugin)
 .text          0x0000000000000000        0x0 TAM_MLME.o (symbol from plugin)
 .text          0x0000000000000000        0x0 TAM_TAH.o (symbol from plugin)
 .text          0x0000000000000000        0x0 TAM_TAI.o (symbol from plugin)
 .text          0x0000000000000000        0x0 TAM_TAT.o (symbol from plugin)
 .text          0x0000000000000000        0x0 TAMcommon.o (symbol from plugin)
 .text          0x0000000000000000        0x0 TAMevent.o (symbol from plugin)
 .text          0x0000000000000000        0x0 TAMqueue.o (symbol from plugin)
 .text          0x0000000000000000        0x0 TAMrxEnable.o (symbol from plugin)
 .text          0x0000000000000000        0x0 TAMsecurity.o (symbol from plugin)
 .text          0x0000000000000000        0x0 TAMsideways.o (symbol from plugin)
 .text          0x0000000000000000        0x0 TAMtime.o (symbol from plugin)
 .text          0x0000000000000000        0x0 TAM_AES.o (symbol from plugin)
 .text          0x0000000000000000        0x0 Endian.o (symbol from plugin)
 .text          0x0000000000000000        0x0 mac_acl.o (symbol from plugin)
 .text          0x0000000000000000        0x0 mac_misc.o (symbol from plugin)
 .text          0x0000000000000000        0x0 tsv_main.o (symbol from plugin)
 .text          0x0000000000000000        0x0 xcv_main.o (symbol from plugin)
 .text          0x0000000000000000        0x0 xcv_access.o (symbol from plugin)
 .text          0x0000000000000000        0x0 xcv_isr.o (symbol from plugin)
 .text          0x0000000000000000        0x0 AEScoprocessorCCM.o (symbol from plugin)
 .text          0x0000000000000000        0x0 AES_CCM_Star.o (symbol from plugin)
 .text          0x0000000000000000        0x0 AEScoprocessorAPI.o (symbol from plugin)
 .text          0x0000000000000000        0x0 AHI_Analogue.o (symbol from plugin)
 .text          0x0000000000000000        0x0 AHI_BrownOut.o (symbol from plugin)
 .text          0x0000000000000000        0x0 AHI_Dio.o (symbol from plugin)
 .text          0x0000000000000000        0x0 AHI_Reset.o (symbol from plugin)
 .text          0x0000000000000000        0x0 AHI_Spi.o (symbol from plugin)
 .text          0x0000000000000000        0x0 AHI_System.o (symbol from plugin)
 .text          0x0000000000000000        0x0 AHI_Timer.o (symbol from plugin)
 .text          0x0000000000000000        0x0 AHI_TimerInt.o (symbol from plugin)
 .text          0x0000000000000000        0x0 AHI_Uart.o (symbol from plugin)
 .text          0x0000000000000000        0x0 AHI_WakeTimer.o (symbol from plugin)
 .text          0x0000000000000000        0x0 AHI_Flash.o (symbol from plugin)
 .text          0x0000000000000000        0x0 AHI_Infrared.o (symbol from plugin)
 .text          0x0000000000000000        0x0 InternalFlashApi.o (symbol from plugin)
 .text          0x0000000000000000        0x0 AHI_FlashIndexSector.o (symbol from plugin)
 .text          0x0000000000000000        0x0 AHI_Si.o (symbol from plugin)
 .text          0x0000000000000000        0x0 AHI_TickTimer.o (symbol from plugin)
 .data          0x0000000000000000        0x0 c:/MWSDK/ChipLib/SW4063V1416/Components/Library\libHardwareApi_JN516x.a(AHI_Interrupt.o)
 .bss           0x0000000000000000        0x0 c:/MWSDK/ChipLib/SW4063V1416/Components/Library\libHardwareApi_JN516x.a(AHI_Interrupt.o)
 .text          0x0000000000000000        0x0 AHI_Init.o (symbol from plugin)
 .text          0x0000000000000000        0x0 AHI_SpiSlave.o (symbol from plugin)
 .text          0x0000000000000000        0x0 MicroInt_ba.o (symbol from plugin)
 .text          0x0000000000000000        0x0 c:/MWSDK/ChipLib/SW4063V1416/Components/Library\libMicroSpecific_JN516x.a(MicroSyscall_ba.o)
 .data          0x0000000000000000        0x0 c:/MWSDK/ChipLib/SW4063V1416/Components/Library\libMicroSpecific_JN516x.a(MicroSyscall_ba.o)
 .bss           0x0000000000000000        0x0 c:/MWSDK/ChipLib/SW4063V1416/Components/Library\libMicroSpecific_JN516x.a(MicroSyscall_ba.o)
 .text          0x0000000000000000        0x0 Heap.o (symbol from plugin)
 .text          0x0000000000000000        0x0 c:/MWSDK/ChipLib/SW4063V1416/Components/Library\libBoot_JN516x.a(ExceptionHandler.o)
 .data          0x0000000000000000        0x0 c:/MWSDK/ChipLib/SW4063V1416/Components/Library\libBoot_JN516x.a(ExceptionHandler.o)
 .bss           0x0000000000000000        0x0 c:/MWSDK/ChipLib/SW4063V1416/Components/Library\libBoot_JN516x.a(ExceptionHandler.o)
 .text          0x0000000000000000        0x0 AppHousekeeping.o (symbol from plugin)
 .text          0x0000000000000000        0x0 AEScoprocessorAPIinterrupts.o (symbol from plugin)

Memory Configuration

Name             Origin             Length             Attributes
flash            0x0000000000080000 0x0000000000028000
ram              0x000000000400004c 0x0000000000007fb4
*default*        0x0000000000000000 0xffffffffffffffff

Linker script and memory map

LOAD objs_BLUE/Main.o
LOAD C:\Users\Maeoka\AppData\Local\Temp\ccqRG8OS.ltrans0.ltrans.o
LOAD C:\Users\Maeoka\AppData\Local\Temp\ccqRG8OS.ltrans1.ltrans.o
LOAD C:\Users\Maeoka\AppData\Local\Temp\ccqRG8OS.ltrans2.ltrans.o
LOAD C:\Users\Maeoka\AppData\Local\Temp\ccqRG8OS.ltrans3.ltrans.o
LOAD C:\Users\Maeoka\AppData\Local\Temp\ccqRG8OS.ltrans4.ltrans.o
LOAD C:\Users\Maeoka\AppData\Local\Temp\ccqRG8OS.ltrans5.ltrans.o
LOAD C:\Users\Maeoka\AppData\Local\Temp\ccqRG8OS.ltrans6.ltrans.o
LOAD C:\Users\Maeoka\AppData\Local\Temp\ccqRG8OS.ltrans7.ltrans.o
LOAD C:\Users\Maeoka\AppData\Local\Temp\ccqRG8OS.ltrans8.ltrans.o
LOAD C:\Users\Maeoka\AppData\Local\Temp\ccqRG8OS.ltrans9.ltrans.o
LOAD C:\Users\Maeoka\AppData\Local\Temp\ccqRG8OS.ltrans10.ltrans.o
LOAD C:\Users\Maeoka\AppData\Local\Temp\ccqRG8OS.ltrans11.ltrans.o
LOAD C:\Users\Maeoka\AppData\Local\Temp\ccqRG8OS.ltrans12.ltrans.o
LOAD C:\Users\Maeoka\AppData\Local\Temp\ccqRG8OS.ltrans13.ltrans.o
LOAD C:\Users\Maeoka\AppData\Local\Temp\ccqRG8OS.ltrans14.ltrans.o
LOAD C:\Users\Maeoka\AppData\Local\Temp\ccqRG8OS.ltrans15.ltrans.o
LOAD c:/mwsdk/tools/ba-elf-ba2-r36379/bin/../lib/gcc/ba-elf/4.7.4/../../../../ba-elf/lib/mcpu_jn51xx_sizeopt\libc.a
LOAD c:/mwsdk/tools/ba-elf-ba2-r36379/bin/../lib/gcc/ba-elf/4.7.4/mcpu_jn51xx_sizeopt\libgcc.a
LOAD c:/mwsdk/tools/ba-elf-ba2-r36379/bin/../lib/gcc/ba-elf/4.7.4/../../../../ba-elf/lib/mcpu_jn51xx_sizeopt\libc.a
LOAD c:/MWSDK/Wks_TWELITE/Current-Test/../../TWENET/L1200/lib/libTWENET_BLUE.a
LOAD c:/MWSDK/Wks_TWELITE/Current-Test/../../TWENET/L1200/lib/libTWENEText_BLUE.a
LOAD c:/MWSDK/Wks_TWELITE/Current-Test/../../TWENET/L1200/lib/libTWENETutils_BLUE.a
START GROUP
LOAD c:/MWSDK/ChipLib/SW4063V1416/Components/Library\libAppApi_JN516x.a
LOAD c:/MWSDK/ChipLib/SW4063V1416/Components/Library\libMAC_JN516x.a
LOAD c:/MWSDK/ChipLib/SW4063V1416/Components/Library\libTimerServer_JN516x.a
LOAD c:/MWSDK/ChipLib/SW4063V1416/Components/Library\libTOF_JN516x.a
LOAD c:/MWSDK/ChipLib/SW4063V1416/Components/Library\libXcv_JN516x.a
LOAD c:/MWSDK/ChipLib/SW4063V1416/Components/Library\libAes_JN516x.a
LOAD c:/MWSDK/ChipLib/SW4063V1416/Components/Library\libHardwareApi_JN516x.a
LOAD c:/MWSDK/ChipLib/SW4063V1416/Components/Library\libMicroSpecific_JN516x.a
LOAD c:/MWSDK/ChipLib/SW4063V1416/Components/Library\libBoot_JN516x.a
LOAD c:/MWSDK/ChipLib/SW4063V1416/Components/Library\libPDM_EEPROM_JN516x_NO_RTOS.a
LOAD c:/MWSDK/Wks_TWELITE/Current-Test/../../TWENET/L1200/lib/libTWENET_BLUE.a
LOAD c:/MWSDK/Wks_TWELITE/Current-Test/../../TWENET/L1200/lib/libTWENEText_BLUE.a
LOAD c:/MWSDK/Wks_TWELITE/Current-Test/../../TWENET/L1200/lib/libTWENETutils_BLUE.a
END GROUP
LOAD c:/mwsdk/tools/ba-elf-ba2-r36379/bin/../lib/gcc/ba-elf/4.7.4/../../../../ba-elf/lib/mcpu_jn51xx_sizeopt\libc.a
LOAD c:/mwsdk/tools/ba-elf-ba2-r36379/bin/../lib/gcc/ba-elf/4.7.4/mcpu_jn51xx_sizeopt\libgcc.a
LOAD c:/mwsdk/tools/ba-elf-ba2-r36379/bin/../lib/gcc/ba-elf/4.7.4/../../../../ba-elf/lib/mcpu_jn51xx_sizeopt\libc.a
                0x0000000000000800                _stack_size = 0x800
                0x0000000000080038                _exception_vsr_table = 0x80038
                0x0000000004000000                pSPIflashFncTable = 0x4000000
                0x0000000000000800                _stack_size = 0x800
                0x0000000000000044                restore_state = 0x44
                0x000000000000004a                bZSPIWaitWIPClear = 0x4a
                0x0000000000000050                u16ZSPIflashRDID = 0x50
                0x0000000000000056                u8SelectFlashChipType = 0x56
                0x000000000000005c                memcpy = 0x5c
                0x0000000000000066                vBootFlashProg = 0x66
                [0x0000000000000d16]                _minimum_heap_size = DEFINED (_minimum_heap_size)?_minimum_heap_size:0xd16
                0x0000000000000000                _SwConfig = (DEFINED (g_bSWConf_Debug) | (DEFINED (g_bSWConf_AltDebugPort) << 0x1))

.version        0x000000000007fffc        0x4
                0x000000000007fffc        0x4 LONG 0x4030008

.bir            0x0000000000080000       0x10
                0x0000000000080000                _flash_start = ABSOLUTE (.)
                0x0000000000080000                _flash_beg = ABSOLUTE (.)
                0x0000000000080000        0x4 LONG 0x12345678
                0x0000000000080004        0x4 LONG 0x11223344
                0x0000000000080008        0x4 LONG 0x55667788
                0x000000000008000c        0x1 BYTE 0x8
                0x000000000008000d        0x1 BYTE 0x1
                0x000000000008000e        0x2 SHORT 0x0

.flashheader    0x0000000000080010       0x28
                0x0000000000080010        0x4 LONG 0x0
                0x0000000000080014        0x4 LONG 0x0
                0x0000000000080018        0x4 LONG 0x0
                0x000000000008001c        0x2 SHORT 0x0
                0x000000000008001e        0x2 SHORT 0x0 ABSOLUTE (_SwConfig)
                0x0000000000080020                _enc_start = ABSOLUTE (.)
                0x0000000000080020        0x4 LONG 0xa0cc ABSOLUTE (_image_len)
                0x0000000000080024        0x4 LONG 0x8a0bc ABSOLUTE (_flash_data_start)
                0x0000000000080028        0x2 SHORT 0x13 ((ABSOLUTE (_ram_data_start) / 0x4) & 0xffff)
                0x000000000008002a        0x2 SHORT 0x4 ((ABSOLUTE (_ram_data_len) / 0x4) & 0xffff)
                0x000000000008002c        0x2 SHORT 0x17 ((ABSOLUTE (_bss_start) / 0x4) & 0xffff)
                0x000000000008002e        0x2 SHORT 0x665 ((ABSOLUTE (_bss_len) / 0x4) & 0xffff)
                0x0000000000080030        0x4 LONG 0x85aac ABSOLUTE (AppWarmStart)
                0x0000000000080034        0x4 LONG 0x89716 ABSOLUTE (AppColdStart)
                0x0000000000000000                _enc_offset = (_enc_start & 0xf)
                0x0000000000000044                PROVIDE (vException_BusError, restore_state)
                0x0000000000000044                PROVIDE (vException_UnalignedAccess, restore_state)
                0x0000000000000044                PROVIDE (vException_IllegalInstruction, restore_state)
                0x0000000000000044                PROVIDE (vException_SysCall, restore_state)
                0x0000000000000044                PROVIDE (vException_Trap, restore_state)
                0x0000000000000044                PROVIDE (vException_StackOverflow, restore_state)
                0x0000000000080038                . = ABSOLUTE (_exception_vsr_table)

.vsr_table      0x0000000000080038       0x18
                0x0000000000080038        0x4 LONG 0x44 ABSOLUTE (vException_BusError)
                0x000000000008003c        0x4 LONG 0x44 ABSOLUTE (vException_UnalignedAccess)
                0x0000000000080040        0x4 LONG 0x44 ABSOLUTE (vException_IllegalInstruction)
                0x0000000000080044        0x4 LONG 0x44 ABSOLUTE (vException_SysCall)
                0x0000000000080048        0x4 LONG 0x44 ABSOLUTE (vException_Trap)
                0x000000000008004c        0x4 LONG 0x44 ABSOLUTE (vException_StackOverflow)

.vsr_handlers   0x0000000000080050       0xaa
 *(.vsr_handlers)
 .vsr_handlers  0x0000000000080050       0xaa c:/MWSDK/ChipLib/SW4063V1416/Components/Library\libBoot_JN516x.a(ExceptionHandler.o)
                0x0000000000080050                _exception_external_interrupt
                0x00000000000800f8                _default_vsr_dummy

.rodata         0x00000000000800fc      0x4d0
 *(.rodata*)
 .rodata.str1.1
                0x00000000000800fc        0x7 C:\Users\Maeoka\AppData\Local\Temp\ccqRG8OS.ltrans0.ltrans.o
 *fill*         0x0000000000080103        0x1 00
 .rodata        0x0000000000080104       0x28 C:\Users\Maeoka\AppData\Local\Temp\ccqRG8OS.ltrans0.ltrans.o
                0x0000000000080104                aeTimerInterruptDeviceIDlut.20766
 .rodata        0x000000000008012c       0xd4 C:\Users\Maeoka\AppData\Local\Temp\ccqRG8OS.ltrans1.ltrans.o
                0x000000000008012c                s_aprScanHandleEvt.10449
                0x000000000008015c                apvActionCalls
                0x00000000000801e4                aprLPBMacVectorRamTable
                0x00000000000801f8                psTamMacContext
                0x00000000000801fc                psTAMcontext
 .rodata        0x0000000000080200        0x4 C:\Users\Maeoka\AppData\Local\Temp\ccqRG8OS.ltrans2.ltrans.o
 .rodata        0x0000000000080204       0x2c C:\Users\Maeoka\AppData\Local\Temp\ccqRG8OS.ltrans3.ltrans.o
                0x0000000000080204                psTamXcvContext
                0x0000000000080208                CSWTCH.35.20713.20713
                0x000000000008021c                au32TimerBaseAddress
 .rodata        0x0000000000080230       0x9a C:\Users\Maeoka\AppData\Local\Temp\ccqRG8OS.ltrans5.ltrans.o
 .rodata        0x00000000000802ca        0xa C:\Users\Maeoka\AppData\Local\Temp\ccqRG8OS.ltrans6.ltrans.o
 .rodata.str1.1
                0x00000000000802d4       0x98 C:\Users\Maeoka\AppData\Local\Temp\ccqRG8OS.ltrans7.ltrans.o
 .rodata        0x000000000008036c       0x19 C:\Users\Maeoka\AppData\Local\Temp\ccqRG8OS.ltrans7.ltrans.o
                0x000000000008036c                gbHighPowerMode
                0x000000000008036d                gu8ModuleID
 .rodata        0x0000000000080385        0x6 C:\Users\Maeoka\AppData\Local\Temp\ccqRG8OS.ltrans8.ltrans.o
                0x0000000000080385                aeXcvPhyEvtToScanEvt.5394.10452
 .rodata.str1.1
                0x000000000008038b       0x22 C:\Users\Maeoka\AppData\Local\Temp\ccqRG8OS.ltrans9.ltrans.o
 *fill*         0x00000000000803ad        0x3 00
 .rodata        0x00000000000803b0       0x38 C:\Users\Maeoka\AppData\Local\Temp\ccqRG8OS.ltrans9.ltrans.o
                0x00000000000803b0                asStateFuncTbl.2398
 .rodata        0x00000000000803e8       0x18 C:\Users\Maeoka\AppData\Local\Temp\ccqRG8OS.ltrans10.ltrans.o
 .rodata        0x0000000000080400      0x131 C:\Users\Maeoka\AppData\Local\Temp\ccqRG8OS.ltrans11.ltrans.o
 .rodata.str1.1
                0x0000000000000000       0x11 C:\Users\Maeoka\AppData\Local\Temp\ccqRG8OS.ltrans12.ltrans.o
 *fill*         0x0000000000080531        0x3 00
 .rodata        0x0000000000080534        0x8 C:\Users\Maeoka\AppData\Local\Temp\ccqRG8OS.ltrans14.ltrans.o
                0x0000000000080534                au32UartAddrOffset
 .rodata.str1.1
                0x000000000008053c       0x11 C:\Users\Maeoka\AppData\Local\Temp\ccqRG8OS.ltrans15.ltrans.o
 *fill*         0x000000000008054d        0x3 00
 .rodata        0x0000000000080550       0x7c C:\Users\Maeoka\AppData\Local\Temp\ccqRG8OS.ltrans15.ltrans.o
                0x0000000000080584                u32MacLow_TOCOS
                0x0000000000080588                u32MacHigh_TOCOS

.text           0x00000000000805cc     0x9aee
 *(.text*)
 .text          0x00000000000805cc      0xb1a C:\Users\Maeoka\AppData\Local\Temp\ccqRG8OS.ltrans0.ltrans.o
                0x000000000008071c                mac_vLPBStartTimer
                0x000000000008097e                vProcessEvCoreTx.2334
                0x0000000000080a68                vfPrintf.constprop.47
                0x0000000000080c03                vAHI_ProtocolPower.constprop.39
                0x0000000000080c11                XCV_vCtor.constprop.37
                0x0000000000080d76                bAHI_SetClockRate
                0x0000000000080e81                bAES_CCMstar
                0x0000000000080f4d                pvHeap_Alloc
                0x0000000000080f50                u32AHI_Init
                0x0000000000081012                vMicroIntRestoreState
                0x000000000008101e                vAHI_WakeTimerStop.part.3.21045
                0x000000000008103e                mac_vLPBStopTimer
                0x0000000000081048                vAHI_UartSetRTSCTS.part.15.20826
                0x000000000008106f                vAHI_UartReset.part.4.20799
                0x00000000000810a7                vAHI_UartSetBaudDivisor.part.1.20779
 .text.unlikely
                0x00000000000810e6       0xb0 C:\Users\Maeoka\AppData\Local\Temp\ccqRG8OS.ltrans0.ltrans.o
                0x00000000000810e6                vAHI_TimerEnable.part.1.20580.constprop.22
                0x0000000000081151                vAHI_MemoryHold.20479
 *fill*         0x0000000000081196        0x2 00
 .text          0x0000000000081198      0xba0 C:\Users\Maeoka\AppData\Local\Temp\ccqRG8OS.ltrans1.ltrans.o
                0x0000000000081198                eWBRTTxDone.10106
                0x00000000000811b6                vTAMCOframeTXgoingIdle
                0x00000000000811cf                vTAMCOframeTXcap
                0x00000000000811f3                eWCoRRxDone.10097
                0x000000000008129d                eWBcnRxDone.10109
                0x0000000000081886                vTAMCOframeRXcap
                0x0000000000081898                vTAMCOframeRXgoingIdle
                0x00000000000818ae                vTAMCOframeRXnobeacon
                0x00000000000818c0                vTAMDEframeRX
                0x00000000000818e8                vTAMDEframeRXtrackingDR
                0x000000000008192b                vTAMDEframePreSyncReq
                0x0000000000081943                vTAMCOframeTXbeacon
                0x0000000000081a0a                vTAMDEframeRXsyncReq
                0x0000000000081c59                vTAMDEint1FiredTrackingCAPgts
                0x0000000000081d0a                eWONTTxDone.10103
 .text          0x0000000000081d38      0xb2b C:\Users\Maeoka\AppData\Local\Temp\ccqRG8OS.ltrans2.ltrans.o
                0x0000000000081d38                vTACintRXheader
                0x0000000000082533                vTAMCOreqTXinCAP
                0x0000000000082559                vTrySendFromDirectCAP.12688
                0x0000000000082575                vTrySendFromDirectNoBeacon.12692
                0x00000000000825a1                vTAMCOint1Fired
                0x00000000000826bd                vTAMCOstartBeacon
                0x00000000000826f8                vStartStoreValues.12756
                0x00000000000827af                bStartCallback.12785
                0x00000000000827de                vTAMCOint1FiredCAP
                0x0000000000082851                vTAMCOreqTXnoBeacon
 .text          0x0000000000082863      0x2d2 C:\Users\Maeoka\AppData\Local\Temp\ccqRG8OS.ltrans3.ltrans.o
                0x0000000000082863                u32AppApiDefInit
                0x0000000000082ace                vProcessEvCoreMac
 .text.unlikely
                0x0000000000082b35      0x484 C:\Users\Maeoka\AppData\Local\Temp\ccqRG8OS.ltrans3.ltrans.o
                0x0000000000082b35                ToCoNet_vStart
 .text          0x0000000000082fb9      0xad4 C:\Users\Maeoka\AppData\Local\Temp\ccqRG8OS.ltrans4.ltrans.o
                0x0000000000082fb9                vMLMEbeaconNotify
                0x0000000000083117                vMCPSframeReceived
                0x00000000000831da                vTAMRXEsetPhy
                0x000000000008329d                vTAHsetPhyState
                0x00000000000832cd                vTAMCOint2Fired
                0x00000000000832ed                vSetPHYfromMacValue.13231
                0x000000000008331f                vTAMDEint1FiredWaitDR
                0x000000000008332c                vTACsetPHYfromMacValue
                0x000000000008334d                vTAMRXEsetReceiveForPibChange
                0x000000000008338d                bAHI_ReadMACID
                0x00000000000833d3                ToCoNet_vInit
                0x00000000000836fe                vExpireHead.19658
                0x000000000008372e                vMicroIntEnableOnly.constprop.54
                0x000000000008375a                QUEUE__u8RemoveItem
                0x00000000000837b4                vHnd_E_STATE_RUNNING.2373
                0x0000000000083a06                QUEUE__vAddItem.constprop.53
                0x0000000000083a38                vHnd_E_STATE_IDLE.2357
 .text.unlikely
                0x0000000000083a8d       0x88 C:\Users\Maeoka\AppData\Local\Temp\ccqRG8OS.ltrans4.ltrans.o
                0x0000000000083a8d                Delay.20383.constprop.18
                0x0000000000083b06                u32AppQApiInitInt_PATCH
 .text          0x0000000000083b15      0xbb2 C:\Users\Maeoka\AppData\Local\Temp\ccqRG8OS.ltrans5.ltrans.o
                0x0000000000083b15                vAHI_IntHandlerTimer4
                0x0000000000083b36                vAHI_IntHandlerTimer3
                0x0000000000083b57                vAHI_IntHandlerTimer1
                0x0000000000083b77                vAHI_IntHandlerTimer0
                0x0000000000083b98                vTimerCallback.20365
                0x0000000000083ba3                vAHI_IntHandlerSpiMaster
                0x0000000000083bc9                vAHI_IntHandlerAnalogPeriph
                0x0000000000083be9                vTTIBLETimerExpired
                0x0000000000083bf4                vAHI_WatchdogStop
                0x0000000000083c0b                vAHI_CpuDoze
                0x0000000000083c1e                vACI_CmdWaitBusy
                0x0000000000083c82                vACI_OptimisedCcmStar
                0x0000000000083e9a                vTAIdisableInterrupt
                0x0000000000083eb3                vUpdateRegisters.19703
                0x0000000000083efa                psRemove.part.0.19653
                0x0000000000083f29                vMAC_MISCpollConfirm
                0x0000000000083f5a                MAC_u8AclFindInfo
                0x0000000000084084                vTASretrieveSecurity
                0x00000000000840a6                MAC_bLookUpKeyDescriptor.17205
                0x0000000000084120                u8TSCframeIncrease
                0x0000000000084159                vTSCpostTransmitUpdate
                0x0000000000084189                vCopyToDataFromMacAddr.17115
                0x00000000000841bc                bTSCgetOutgoingInfo
                0x00000000000842c5                vDoGoOff.16395
                0x00000000000842df                psTAQsearchFifo
                0x0000000000084328                bTAQremoveFromFifo
                0x0000000000084365                vTTITransactionTimerExpired
                0x000000000008438e                vTAMinsertEvent
                0x00000000000843f4                vTTITimer2Expired
                0x00000000000843f8                vTTITimer1Expired
                0x00000000000843fc                vTAM_TxRetryTimeout
                0x0000000000084400                vTACsetTxFrameDefaults
                0x0000000000084426                u8TACgetHeaderSize
                0x0000000000084463                bUpdateTime.15433
                0x000000000008449e                vTACbuildBeacon
                0x00000000000846a6                u32TACpayloadToU32M
 .text.unlikely
                0x00000000000846c7       0x25 C:\Users\Maeoka\AppData\Local\Temp\ccqRG8OS.ltrans5.ltrans.o
                0x00000000000846c7                vStartXtal32kExternalRc.20379
                0x00000000000846d8                vAHI_DioSetDirection
 .text          0x00000000000846ec      0xa86 C:\Users\Maeoka\AppData\Local\Temp\ccqRG8OS.ltrans6.ltrans.o
                0x000000000008484c                bAES_CCM_EncodeKey
                0x00000000000848f9                vHnd_E_STATE_FINISH_TX_FAIL.2342
                0x00000000000849b4                vHnd_E_STATE_FINISH_TX_SUCCESS.2347
                0x0000000000084a4b                SERIAL_vTxReady
                0x0000000000084a83                vAppQApiPostHwIntT.3018
                0x0000000000084b00                bTAM_AES_CCMstarPatch
                0x0000000000084c44                bTAM_AES_CCMstarPatch2006
                0x0000000000084d4b                vWriteFrame.14933
                0x0000000000084f23                bTATsendFrame
                0x0000000000084f76                vTrySendUnslotted.13233
                0x0000000000084f8f                bSendDataRequest.13235
                0x00000000000850a1                bProcessBeaconRX.13238
 .text          0x0000000000085172      0x757 C:\Users\Maeoka\AppData\Local\Temp\ccqRG8OS.ltrans7.ltrans.o
                0x0000000000085172                UART_vHandleUartInterrupt.4437
                0x00000000000851fd                vRxChar.4337
                0x0000000000085283                SERIAL_bTxChar
                0x0000000000085330                vXCV_IntHandlerPhy
                0x00000000000853e2                vScanHandleTimer.9706
                0x00000000000853e7                bAES_CCM_DecodeKey
                0x00000000000854a3                vProcessEvCore.1358
                0x0000000000085671                vXCV_IntHandlerBbc
                0x0000000000085714                u8TAM_AES_WriteAuxilliarySecurityHeaderIntoBuffer
                0x0000000000085786                phy_ePibSet.part.1.11916
                0x00000000000857ce                u32AHI_ReadIndexSectorBits.constprop.9
                0x000000000008582f                vTAIsetCapTime
                0x0000000000085850                vTAIsetRxEnableTime
                0x0000000000085871                vDoGoActive.16397
                0x0000000000085893                vTAMRXEint2Fired
 .text.unlikely
                0x00000000000858c9      0x10d C:\Users\Maeoka\AppData\Local\Temp\ccqRG8OS.ltrans7.ltrans.o
                0x00000000000858c9                bStartXtal32k.20389
 *fill*         0x00000000000859d6        0x2 00
 .text          0x00000000000859d8      0xa24 C:\Users\Maeoka\AppData\Local\Temp\ccqRG8OS.ltrans8.ltrans.o
                0x00000000000859d8                vPostDcfm.10093
                0x0000000000085aac                AppWarmStart
                0x0000000000085b22                vSetNextChannel.10141
                0x0000000000085b7b                MAC_vHandleMlmeReqRsp
                0x0000000000086329                vTAMDEint1FiredTracking
                0x0000000000086398                vTAMDEint1FiredSyncReq
 .text          0x00000000000863fc      0xb3e C:\Users\Maeoka\AppData\Local\Temp\ccqRG8OS.ltrans9.ltrans.o
                0x00000000000863fc                TSV_eStart
                0x00000000000864e0                eTAStransmitRequest
                0x000000000008687b                TSV_eOpen
                0x0000000000086883                vAppApiDefRestoreMacSettings
                0x0000000000086954                vAppApiDefSaveMacSettings
                0x00000000000869b1                mac_vLPBSleep
                0x0000000000086a84                pvAppApiDefGetMacAddrLocation
                0x0000000000086a8d                eAppApiDefPlmeGet
                0x0000000000086adf                vHnd_E_STATE_PREPARE_TX.2352
 *fill*         0x0000000000086f3a        0x2 00
 .text          0x0000000000086f3c      0x95c C:\Users\Maeoka\AppData\Local\Temp\ccqRG8OS.ltrans10.ltrans.o
                0x0000000000086f3c                vPMICassocReqTO_1.8530
                0x0000000000086fc4                vTAM_MCPSdataRequest
                0x0000000000087007                bTACcheckPANconflict
                0x00000000000870c0                vTAMDEstartSync
                0x000000000008713f                eTAMselect
                0x0000000000087280                MAC_pvCtor
                0x000000000008769b                vDeterminePowerState.13355
                0x000000000008771f                vTAMDEint1FiredTrackingBeacon
                0x00000000000877bf                vTAMDEint2FiredTrackingDR
                0x00000000000877e4                vTAMDEframeTXtrackingDR
                0x000000000008783d                vTAMDEint2FiredPollActive
                0x0000000000087871                vTAMDEreqTXnullTrackingCAP
                0x000000000008788a                vTAM_TxRetryTimer
 .text          0x0000000000087898      0xa01 C:\Users\Maeoka\AppData\Local\Temp\ccqRG8OS.ltrans11.ltrans.o
                0x0000000000087898                mac_vLPBAdjustBeaconOffset
                0x00000000000878f5                mac_u32LPBGetBeaconTimeout
                0x00000000000878fe                eWEnDTmrExpiry.10090
                0x0000000000087909                eWEnDEdDone.10087
                0x0000000000087964                eGenlDontCare.10084
                0x0000000000087969                eGenlIllegal.9709
                0x0000000000087970                u32GetTimer0
                0x0000000000087977                vSetTimer0
                0x0000000000087986                SPRINTF_bPutChar.4599
                0x00000000000879c2                vHandlerPatch.4312
                0x00000000000879f9                u8HwEventHandler.1709
                0x0000000000087a18                vTACu32ToPayloadM
                0x0000000000087a30                bTACframeInProgress
                0x0000000000087a5a                bTACassessBeaconForPayload
                0x0000000000087aab                bIsBbcSafeForTx
                0x0000000000087ae0                vTATwriteAclMaterialToHardware
                0x0000000000087b05                vTATsetBLE
                0x0000000000087b3c                vTATgetFramePayload
                0x0000000000087b59                eTATreadTXstatus
                0x0000000000087b9f                vTAHsetPhyStateDirect.part.0.14574
                0x0000000000087bbb                vMEMreturn
                0x0000000000087c2c                vTACinformOriginator
                0x0000000000087c4e                pvMEMget
                0x0000000000087c7a                vTAMDEdetermineNullState
                0x0000000000087c94                vTAMCOupdatePendingList
                0x0000000000087d66                vTAMCOsetCoordinator
                0x0000000000087d8c                vPhySetChannel
                0x0000000000087da5                eScanHandleEvt.part.0.10120
                0x0000000000087dce                mac_eDcfmIndPost
                0x0000000000087def                mac_psDcfmIndGetBuf
                0x0000000000087e10                vMLMErxEnableConfirm
                0x0000000000087e42                vMLMEcommStatus
                0x0000000000087ea5                vMLMEcommStatusFromFrame
                0x0000000000087ee9                vMLMEsyncLoss
                0x0000000000087f1c                vPMICpostFailedAssocDcfm
                0x0000000000087f54                vPMICassocReqTO_2.8537
                0x0000000000087f6b                MAC_vPibSetPanId
                0x0000000000087f86                vHandleTofRequest.6643
                0x0000000000087f89                vAppApiDefSetPrbsSeed
                0x0000000000087fad                u8CCITT8
                0x0000000000087fd3                Mac_vInit
                0x000000000008801f                bAES_CCM_KeyReg
                0x000000000008805e                bFifoPush.3039
                0x0000000000088097                vAppQApiPostMlme.3025
                0x00000000000880b6                vAppQApiPostMcps.3032
                0x00000000000880d1                pvFifoPull.3036
                0x00000000000880f8                psAppQApiGetMlmeBuffer.3022
                0x0000000000088100                psAppQApiGetMcpsBuffer.3029
                0x0000000000088108                ToCoNet_vReg_mod_TxRxQueueMid
                0x0000000000088189                PRSEV_vSetState
                0x0000000000088199                PRSEV_u8Register
                0x00000000000881cb                PRSEV_vProcessEv_core.1505
                0x0000000000088267                PRSEV_vProcessEvPost
 .text.unlikely
                0x0000000000088299        0xf C:\Users\Maeoka\AppData\Local\Temp\ccqRG8OS.ltrans11.ltrans.o
                0x0000000000088299                _PRSEV_vProcessEvSingleH
 .text          0x00000000000882a8      0x6bd C:\Users\Maeoka\AppData\Local\Temp\ccqRG8OS.ltrans12.ltrans.o
                0x00000000000882a8                ToCoNet_vMain
                0x00000000000888d1                ToCoNet_ChMgr_vCh_TxFin
                0x00000000000888fe                vHnd_E_STATE_WAIT_TX.2365
 *fill*         0x0000000000088965        0x3 00
 .text          0x0000000000088968      0x780 C:\Users\Maeoka\AppData\Local\Temp\ccqRG8OS.ltrans13.ltrans.o
                0x0000000000088968                eGenTmrExpiry.10402
                0x00000000000889aa                eWEDTEdDone.10405
                0x00000000000889ce                TSV_eStop
                0x0000000000088a8c                bPMICdisassocReqSent.8526
                0x0000000000088b46                MAC_vHandleMcpsReqRsp
                0x0000000000088bd3                bMCPSframeTXcomplete.11137
                0x0000000000088c28                bSendSyncLoss.15368
                0x0000000000088c40                bPollReqSent.18964
                0x0000000000088c58                bTASsendCommStatusInd
                0x0000000000088c6d                bAssocRespSent.8522
                0x0000000000088c80                eTACprocessFrameTXcomplete
                0x0000000000088dfd                vTAMCOframeTXnobeacon
                0x0000000000088e12                vTAMCOframeStarting
                0x0000000000088e2b                vTAMDEframeTXDEnull
                0x0000000000088e4e                vTAMDEframeTXtrackingCAPgts
                0x0000000000088e7a                bPMICassocReqSent.8518
                0x0000000000088efc                bPMICassocReqPollSent.8533
                0x0000000000088f50                eWChCChanChgd.10117
 .text          0x00000000000890e8      0x611 C:\Users\Maeoka\AppData\Local\Temp\ccqRG8OS.ltrans14.ltrans.o
                0x00000000000890e8                vAHI_IntHandlerTickTimer
                0x000000000008912f                eGenRxHdrDone.10100
                0x000000000008913f                eAppApiDefPlmeSet
                0x0000000000089198                _ToCoNet_bRfChChannel
                0x00000000000891ff                ToCoNet_ChMgr_bCh_Reconfig
                0x0000000000089267                vAppApiDefMcpsRequest
                0x0000000000089292                vAppApiDefMlmeRequest
                0x00000000000892bd                pvAppApiDefGetMacHandle
                0x00000000000892c6                cbAppColdStart.part.1.1373
 .text.unlikely
                0x00000000000896f9       0x1d C:\Users\Maeoka\AppData\Local\Temp\ccqRG8OS.ltrans14.ltrans.o
                0x00000000000896f9                Mac_vReset
 .text          0x0000000000089716      0x531 C:\Users\Maeoka\AppData\Local\Temp\ccqRG8OS.ltrans15.ltrans.o
                0x0000000000089716                AppColdStart
 .text          0x0000000000089c47       0x25 c:/mwsdk/tools/ba-elf-ba2-r36379/bin/../lib/gcc/ba-elf/4.7.4/../../../../ba-elf/lib/mcpu_jn51xx_sizeopt\libc.a(lib_a-memcmp.o)
                0x0000000000089c47                memcmp
 .text          0x0000000000089c6c       0x19 c:/mwsdk/tools/ba-elf-ba2-r36379/bin/../lib/gcc/ba-elf/4.7.4/../../../../ba-elf/lib/mcpu_jn51xx_sizeopt\libc.a(lib_a-memcpy.o)
 .text          0x0000000000089c85       0x12 c:/mwsdk/tools/ba-elf-ba2-r36379/bin/../lib/gcc/ba-elf/4.7.4/../../../../ba-elf/lib/mcpu_jn51xx_sizeopt\libc.a(lib_a-memset.o)
                0x0000000000089c85                memset
 *fill*         0x0000000000089c97        0x1 00
 .text          0x0000000000089c98      0x204 c:/mwsdk/tools/ba-elf-ba2-r36379/bin/../lib/gcc/ba-elf/4.7.4/mcpu_jn51xx_sizeopt\libgcc.a(__udivsi3.o)
                0x0000000000089c98                __udivsi3
 .text          0x0000000000089e9c       0x30 c:/mwsdk/tools/ba-elf-ba2-r36379/bin/../lib/gcc/ba-elf/4.7.4/mcpu_jn51xx_sizeopt\libgcc.a(__divsi3.o)
                0x0000000000089e9c                __divsi3
 .text          0x0000000000089ecc      0x1b0 c:/mwsdk/tools/ba-elf-ba2-r36379/bin/../lib/gcc/ba-elf/4.7.4/mcpu_jn51xx_sizeopt\libgcc.a(__umodsi3.o)
                0x0000000000089ecc                __umodsi3
 .text          0x000000000008a07c       0x27 c:/MWSDK/ChipLib/SW4063V1416/Components/Library\libHardwareApi_JN516x.a(AHI_Interrupt.o)
                0x000000000008a07c                vAHI_InterruptSetPriority
                0x000000000008a09a                vAHI_InterruptSetActivePriorityLevel
 .text.vMicroSyscall
                0x000000000008a0a3       0x17 c:/MWSDK/ChipLib/SW4063V1416/Components/Library\libMicroSpecific_JN516x.a(MicroSyscall_ba.o)
                0x000000000008a0a3                vMicroSyscall
                0x000000000008a0ba                _flash_end = ABSOLUTE (.)

.rela.dyn       0x000000000008a0bc        0x0
 .rela.text     0x0000000000000000        0x0 C:\Users\Maeoka\AppData\Local\Temp\ccqRG8OS.ltrans0.ltrans.o
 .rela.data     0x0000000000000000        0x0 C:\Users\Maeoka\AppData\Local\Temp\ccqRG8OS.ltrans0.ltrans.o
 .rela.text.unlikely
                0x0000000000000000        0x0 C:\Users\Maeoka\AppData\Local\Temp\ccqRG8OS.ltrans0.ltrans.o
 .rela.rodata   0x0000000000000000        0x0 C:\Users\Maeoka\AppData\Local\Temp\ccqRG8OS.ltrans0.ltrans.o
                0x000000000400004c                . = ORIGIN (ram)

.data           0x000000000400004c       0x10 load address 0x000000000008a0bc
                0x000000000400004c                _ram_data_start = ABSOLUTE (.)
 *(.data*)
 .data          0x000000000400004c        0x4 C:\Users\Maeoka\AppData\Local\Temp\ccqRG8OS.ltrans0.ltrans.o
                0x000000000400004c                u32HeapStart
 .data.initinboot
                0x0000000004000050        0x8 C:\Users\Maeoka\AppData\Local\Temp\ccqRG8OS.ltrans0.ltrans.o
 .data          0x0000000004000058        0x1 C:\Users\Maeoka\AppData\Local\Temp\ccqRG8OS.ltrans9.ltrans.o
                0x0000000004000058                u8TxWkrNow.2475
 .data          0x0000000004000059        0x1 C:\Users\Maeoka\AppData\Local\Temp\ccqRG8OS.ltrans10.ltrans.o
 .data.initinboot
                0x000000000400005a        0x1 C:\Users\Maeoka\AppData\Local\Temp\ccqRG8OS.ltrans10.ltrans.o
                0x000000000400005a                gMAC_u8MaxBuffers
 *(.data.*)
                0x000000000400005c                . = ALIGN (0x4)
 *fill*         0x000000000400005b        0x1 00
                0x000000000400005c                _ram_data_end = ABSOLUTE (.)

.bss            0x000000000400005c     0x1994 load address 0x000000000008a0cc
                0x000000000400005c                _bss_start = ABSOLUTE (.)
 *(.bss*)
 .bss           0x000000000400005c        0x4 C:\Users\Maeoka\AppData\Local\Temp\ccqRG8OS.ltrans0.ltrans.o
 .bss.dontinitinboot
                0x0000000004000060        0xc C:\Users\Maeoka\AppData\Local\Temp\ccqRG8OS.ltrans0.ltrans.o
 .bss           0x000000000400006c       0x40 C:\Users\Maeoka\AppData\Local\Temp\ccqRG8OS.ltrans1.ltrans.o
                0x000000000400006c                g_sLP
                0x00000000040000a8                g_pvMac
 .bss.initinboot
                0x00000000040000ac      0x1c0 C:\Users\Maeoka\AppData\Local\Temp\ccqRG8OS.ltrans1.ltrans.o
                0x00000000040000ac                g_sMac
 .bss           0x000000000400026c        0x8 C:\Users\Maeoka\AppData\Local\Temp\ccqRG8OS.ltrans2.ltrans.o
 .bss           0x0000000004000274      0x170 C:\Users\Maeoka\AppData\Local\Temp\ccqRG8OS.ltrans3.ltrans.o
                0x0000000004000274                g_sXcv
                0x0000000004000278                prMcpsRequest.5530
                0x000000000400027c                prMlmeRequest.5529
                0x0000000004000280                prOriginalHandler.4316
                0x0000000004000284                psRxQueueList.4182
                0x0000000004000298                prTickTimeAppCallback
                0x000000000400029c                apfTimerAppCallback.20765
                0x00000000040002b0                au16TimerSettings.20714
                0x00000000040002bc                asEventHandler.1568
                0x000000000400033c                sEvVars
                0x0000000004000358                u32TickCount_ms
                0x000000000400035c                au8Txdatabuff_idx_sTxQueue
                0x0000000004000360                u8TxBuffSiz_sTxQueue
                0x0000000004000364                sTxdatabuff_sTxQueue
                0x0000000004000368                sTxQueue
                0x0000000004000384                au8Rxdatabuff_idx_sRxQueue
                0x0000000004000388                u8RxBuffSiz_sRxQueue
                0x000000000400038c                sRxdatabuff_sRxQueue
                0x0000000004000390                sRxQueue
                0x00000000040003ac                au8Rxdatabuff_idx_sRxQueueCmd
                0x00000000040003b0                u8RxBuffSiz_sRxQueueCmd
                0x00000000040003b4                sRxdatabuff_sRxQueueCmd
                0x00000000040003b8                sRxQueueCmd.2006
 .bss           0x00000000040003e4      0x724 C:\Users\Maeoka\AppData\Local\Temp\ccqRG8OS.ltrans4.ltrans.o
                0x00000000040003e4                bForceInitialize.2434
                0x00000000040003e8                prApAppCallback.20194
                0x00000000040003ec                prSpiAppCallback.20353
                0x00000000040003f0                prSiAppCallback.21548
                0x00000000040003f4                prAppMcpsCallback.3261
                0x00000000040003f8                prAppMlmeCallback.3262
                0x00000000040003fc                bTxEventQueued.16263
                0x00000000040003fd                u8TxEventStatus.16264
                0x00000000040003fe                TxWorker_u8Num.2433
                0x00000000040003ff                gbTimeOutFlag.20552
 .bss.initinboot
                0x0000000004000b08        0x4 C:\Users\Maeoka\AppData\Local\Temp\ccqRG8OS.ltrans4.ltrans.o
                0x0000000004000b08                prSysCtrlAppCallback.20556
 .bss           0x0000000004000b0c        0x1 C:\Users\Maeoka\AppData\Local\Temp\ccqRG8OS.ltrans5.ltrans.o
                0x0000000004000b0c                u8TAM_TxStatusOverride
 *fill*         0x0000000004000b0d        0x3 00
 .bss           0x0000000004000b10        0x8 C:\Users\Maeoka\AppData\Local\Temp\ccqRG8OS.ltrans6.ltrans.o
                0x0000000004000b10                prAppHwCallback.3263
                0x0000000004000b14                bStartSend
 .bss.dontinitinboot
                0x0000000004000b18        0x1 C:\Users\Maeoka\AppData\Local\Temp\ccqRG8OS.ltrans6.ltrans.o
 *fill*         0x0000000004000b19        0x3 00
 .bss           0x0000000004000b1c       0x1c C:\Users\Maeoka\AppData\Local\Temp\ccqRG8OS.ltrans7.ltrans.o
                0x0000000004000b1c                sAppHousekeeping
 .bss           0x0000000004000b38       0x70 C:\Users\Maeoka\AppData\Local\Temp\ccqRG8OS.ltrans8.ltrans.o
                0x0000000004000b38                sToCoNet_AppContext
                0x0000000004000b54                sToCoNet_Context
                0x0000000004000b98                sAssocSecurity.9147
                0x0000000004000ba4                g_bJenieBackwardsCompatibilityMode
 .bss           0x0000000004000ba8       0x34 C:\Users\Maeoka\AppData\Local\Temp\ccqRG8OS.ltrans9.ltrans.o
                0x0000000004000ba8                sCh_Context.2896
                0x0000000004000bac                u8AppId_Pkt_head.4185
                0x0000000004000bb0                u32MyAddr.4184
                0x0000000004000bb4                u32AppId.4181
                0x0000000004000bb8                asTx.2432
 .bss.initinboot
                0x0000000004000bdc        0x1 C:\Users\Maeoka\AppData\Local\Temp\ccqRG8OS.ltrans9.ltrans.o
 *fill*         0x0000000004000bdd        0x3 00
 .bss.initinboot
                0x0000000004000be0        0x8 C:\Users\Maeoka\AppData\Local\Temp\ccqRG8OS.ltrans10.ltrans.o
                0x0000000004000be0                g_u32MacAddrLocation
                0x0000000004000be4                prvUserTxStartedCallback
 .bss           0x0000000004000be8      0xb04 C:\Users\Maeoka\AppData\Local\Temp\ccqRG8OS.ltrans11.ltrans.o
 .bss           0x00000000040016ec       0x6c C:\Users\Maeoka\AppData\Local\Temp\ccqRG8OS.ltrans12.ltrans.o
                0x00000000040016ec                sMcpsIndQueue.3257
                0x00000000040016fc                bRxQueue_Init.4183
                0x0000000004001700                sMcpsIndBufferQueue.3255
                0x0000000004001710                sMlmeIndQueue.3258
                0x0000000004001720                sMlmeIndBufferQueue.3256
                0x0000000004001730                sHwIndQueue.3259
                0x0000000004001740                sHwIndBufferQueue.3260
 .bss           0x0000000004001758       0x14 C:\Users\Maeoka\AppData\Local\Temp\ccqRG8OS.ltrans13.ltrans.o
                0x0000000004001758                s_sTimerList
                0x0000000004001768                u8AssocResponsesInProgress.9146
 .bss           0x000000000400176c      0x1ac C:\Users\Maeoka\AppData\Local\Temp\ccqRG8OS.ltrans14.ltrans.o
                0x000000000400176c                prUart1AppCallback.21020
                0x0000000004001770                prUart0AppCallback.21019
                0x0000000004001774                asUARTS.4481
                0x0000000004001794                sOpt.4488
                0x00000000040017a4                asSerialPorts
                0x00000000040017dc                sSerStream.1454
                0x00000000040017e4                au8sprintf.4645
                0x00000000040017e8                SPRINTF_MAX_BUFF.4647
 .bss           0x0000000004001918       0x98 C:\Users\Maeoka\AppData\Local\Temp\ccqRG8OS.ltrans15.ltrans.o
                0x0000000004001918                sContext.4306
                0x0000000004001944                sToCoNet_Modules
 .bss.dontinitinboot
                0x00000000040019b0       0x40 c:/MWSDK/ChipLib/SW4063V1416/Components/Library\libBoot_JN516x.a(ExceptionHandler.o)
                0x00000000040019b0                isr_handlers
 *(.bss.*)
 *(.scommon*)
 *(.scommon.*)
 *(COMMON)
                0x00000000040019f0                . = ALIGN (0x4)
                0x00000000040019f0                _bss_end = ABSOLUTE (.)

.heap           0x00000000040019f0      0xd16 load address 0x000000000008ba60
                0x00000000040019f0                _heap_start = ABSOLUTE (.)
                0x0000000004002706                . = (. + _minimum_heap_size)
 *fill*         0x00000000040019f0      0xd16 00

.stack          0x0000000004007800      0x800 load address 0x0000000000091870
                0x0000000004007800                _heap_end = ABSOLUTE (.)
                0x0000000004007800                _stack_low_water_mark = ABSOLUTE (.)
                0x0000000004008000                . = (. + _stack_size)
 *fill*         0x0000000004007800      0x800 00

.test           0x000000000008a0cc        0x1
                0x000000000008a0cc        0x1 BYTE 0xff
                0x000000000008a0bc                _flash_data_start = LOADADDR (.data)
                0x0000000000000010                _ram_data_len = (((_ram_data_end - _ram_data_start) + 0x3) & 0xfffffffffffffffc)
                0x0000000000001994                _bss_len = (((_bss_end - _bss_start) + 0x3) & 0xfffffffffffffffc)
                0x000000000000a0cc                _image_len = ((((_flash_end - _flash_start) + _ram_data_len) + 0x3) & 0xfffffffffffffffc)
                0x0000000004008000                _ram_top = (ABSOLUTE (ORIGIN (ram)) + 0x7fb4)
                0x0000000004008000                ram_top = (ABSOLUTE (ORIGIN (ram)) + 0x7fb4)
                0x0000000001001580                _app_ram_start = 0x1001580
                0x000000000400004c                PROVIDE (_heap_location, u32HeapStart)
                0x000000000400004c                PROVIDE (heap_location, u32HeapStart)
                0x000000000008687b                TSV_eOpenVector = TSV_eOpen
                0x00000000000863fc                TSV_eStartVector = TSV_eStart
                0x00000000000889ce                TSV_eStopVector = TSV_eStop
                0x00000000000892bd                pvAppApiGetMacHandle = pvAppApiDefGetMacHandle
                0x0000000000082863                u32AppApiInit = u32AppApiDefInit
                0x0000000000089292                vAppApiMlmeRequest = vAppApiDefMlmeRequest
                0x0000000000089267                vAppApiMcpsRequest = vAppApiDefMcpsRequest
                0x000000000008913f                eAppApiPlmeSet = eAppApiDefPlmeSet
                0x0000000000086a8d                eAppApiPlmeGet = eAppApiDefPlmeGet
                0x0000000000086a84                pvAppApiGetMacAddrLocation = pvAppApiDefGetMacAddrLocation
                0x0000000000086954                vAppApiSaveMacSettings = vAppApiDefSaveMacSettings
                0x0000000000086883                vAppApiRestoreMacSettings = vAppApiDefRestoreMacSettings
OUTPUT(objs_BLUE/Current-Test_Main_BLUE_L1200_V0-1-1.elf elf32-ba)

.comment        0x0000000000000000       0x11
 .comment       0x0000000000000000       0x12 C:\Users\Maeoka\AppData\Local\Temp\ccqRG8OS.ltrans0.ltrans.o
 .comment       0x0000000000000000       0x12 C:\Users\Maeoka\AppData\Local\Temp\ccqRG8OS.ltrans1.ltrans.o
 .comment       0x0000000000000000       0x12 C:\Users\Maeoka\AppData\Local\Temp\ccqRG8OS.ltrans2.ltrans.o
 .comment       0x0000000000000000       0x12 C:\Users\Maeoka\AppData\Local\Temp\ccqRG8OS.ltrans3.ltrans.o
 .comment       0x0000000000000000       0x12 C:\Users\Maeoka\AppData\Local\Temp\ccqRG8OS.ltrans4.ltrans.o
 .comment       0x0000000000000000       0x12 C:\Users\Maeoka\AppData\Local\Temp\ccqRG8OS.ltrans5.ltrans.o
 .comment       0x0000000000000000       0x12 C:\Users\Maeoka\AppData\Local\Temp\ccqRG8OS.ltrans6.ltrans.o
 .comment       0x0000000000000000       0x12 C:\Users\Maeoka\AppData\Local\Temp\ccqRG8OS.ltrans7.ltrans.o
 .comment       0x0000000000000000       0x12 C:\Users\Maeoka\AppData\Local\Temp\ccqRG8OS.ltrans8.ltrans.o
 .comment       0x0000000000000000       0x12 C:\Users\Maeoka\AppData\Local\Temp\ccqRG8OS.ltrans9.ltrans.o
 .comment       0x0000000000000000       0x12 C:\Users\Maeoka\AppData\Local\Temp\ccqRG8OS.ltrans10.ltrans.o
 .comment       0x0000000000000000       0x12 C:\Users\Maeoka\AppData\Local\Temp\ccqRG8OS.ltrans11.ltrans.o
 .comment       0x0000000000000000       0x12 C:\Users\Maeoka\AppData\Local\Temp\ccqRG8OS.ltrans12.ltrans.o
 .comment       0x0000000000000000       0x12 C:\Users\Maeoka\AppData\Local\Temp\ccqRG8OS.ltrans13.ltrans.o
 .comment       0x0000000000000000       0x12 C:\Users\Maeoka\AppData\Local\Temp\ccqRG8OS.ltrans14.ltrans.o
 .comment       0x0000000000000000       0x12 C:\Users\Maeoka\AppData\Local\Temp\ccqRG8OS.ltrans15.ltrans.o
 .comment       0x0000000000000000       0x12 c:/mwsdk/tools/ba-elf-ba2-r36379/bin/../lib/gcc/ba-elf/4.7.4/../../../../ba-elf/lib/mcpu_jn51xx_sizeopt\libc.a(lib_a-memcmp.o)
 .comment       0x0000000000000000       0x12 c:/mwsdk/tools/ba-elf-ba2-r36379/bin/../lib/gcc/ba-elf/4.7.4/../../../../ba-elf/lib/mcpu_jn51xx_sizeopt\libc.a(lib_a-memcpy.o)
 .comment       0x0000000000000000       0x12 c:/mwsdk/tools/ba-elf-ba2-r36379/bin/../lib/gcc/ba-elf/4.7.4/../../../../ba-elf/lib/mcpu_jn51xx_sizeopt\libc.a(lib_a-memset.o)
 .comment       0x0000000000000000       0x11 c:/MWSDK/ChipLib/SW4063V1416/Components/Library\libMicroSpecific_JN516x.a(MicroSyscall_ba.o)
                                         0x12 (size before relaxing)

.debug_info     0x0000000000000000      0x596
 .debug_info    0x0000000000000000       0xf3 c:/mwsdk/tools/ba-elf-ba2-r36379/bin/../lib/gcc/ba-elf/4.7.4/../../../../ba-elf/lib/mcpu_jn51xx_sizeopt\libc.a(lib_a-memcmp.o)
 .debug_info    0x00000000000000f3      0x106 c:/mwsdk/tools/ba-elf-ba2-r36379/bin/../lib/gcc/ba-elf/4.7.4/../../../../ba-elf/lib/mcpu_jn51xx_sizeopt\libc.a(lib_a-memcpy.o)
 .debug_info    0x00000000000001f9       0xd7 c:/mwsdk/tools/ba-elf-ba2-r36379/bin/../lib/gcc/ba-elf/4.7.4/../../../../ba-elf/lib/mcpu_jn51xx_sizeopt\libc.a(lib_a-memset.o)
 .debug_info    0x00000000000002d0       0xb4 c:/mwsdk/tools/ba-elf-ba2-r36379/bin/../lib/gcc/ba-elf/4.7.4/mcpu_jn51xx_sizeopt\libgcc.a(__udivsi3.o)
 .debug_info    0x0000000000000384       0xb4 c:/mwsdk/tools/ba-elf-ba2-r36379/bin/../lib/gcc/ba-elf/4.7.4/mcpu_jn51xx_sizeopt\libgcc.a(__divsi3.o)
 .debug_info    0x0000000000000438       0xb4 c:/mwsdk/tools/ba-elf-ba2-r36379/bin/../lib/gcc/ba-elf/4.7.4/mcpu_jn51xx_sizeopt\libgcc.a(__umodsi3.o)
 .debug_info    0x00000000000004ec       0xaa c:/MWSDK/ChipLib/SW4063V1416/Components/Library\libBoot_JN516x.a(ExceptionHandler.o)

.debug_abbrev   0x0000000000000000      0x210
 .debug_abbrev  0x0000000000000000       0x8e c:/mwsdk/tools/ba-elf-ba2-r36379/bin/../lib/gcc/ba-elf/4.7.4/../../../../ba-elf/lib/mcpu_jn51xx_sizeopt\libc.a(lib_a-memcmp.o)
 .debug_abbrev  0x000000000000008e       0xa4 c:/mwsdk/tools/ba-elf-ba2-r36379/bin/../lib/gcc/ba-elf/4.7.4/../../../../ba-elf/lib/mcpu_jn51xx_sizeopt\libc.a(lib_a-memcpy.o)
 .debug_abbrev  0x0000000000000132       0x8e c:/mwsdk/tools/ba-elf-ba2-r36379/bin/../lib/gcc/ba-elf/4.7.4/../../../../ba-elf/lib/mcpu_jn51xx_sizeopt\libc.a(lib_a-memset.o)
 .debug_abbrev  0x00000000000001c0       0x14 c:/mwsdk/tools/ba-elf-ba2-r36379/bin/../lib/gcc/ba-elf/4.7.4/mcpu_jn51xx_sizeopt\libgcc.a(__udivsi3.o)
 .debug_abbrev  0x00000000000001d4       0x14 c:/mwsdk/tools/ba-elf-ba2-r36379/bin/../lib/gcc/ba-elf/4.7.4/mcpu_jn51xx_sizeopt\libgcc.a(__divsi3.o)
 .debug_abbrev  0x00000000000001e8       0x14 c:/mwsdk/tools/ba-elf-ba2-r36379/bin/../lib/gcc/ba-elf/4.7.4/mcpu_jn51xx_sizeopt\libgcc.a(__umodsi3.o)
 .debug_abbrev  0x00000000000001fc       0x14 c:/MWSDK/ChipLib/SW4063V1416/Components/Library\libBoot_JN516x.a(ExceptionHandler.o)

.debug_loc      0x0000000000000000       0xeb
 .debug_loc     0x0000000000000000       0x73 c:/mwsdk/tools/ba-elf-ba2-r36379/bin/../lib/gcc/ba-elf/4.7.4/../../../../ba-elf/lib/mcpu_jn51xx_sizeopt\libc.a(lib_a-memcmp.o)
 .debug_loc     0x0000000000000073       0x39 c:/mwsdk/tools/ba-elf-ba2-r36379/bin/../lib/gcc/ba-elf/4.7.4/../../../../ba-elf/lib/mcpu_jn51xx_sizeopt\libc.a(lib_a-memcpy.o)
 .debug_loc     0x00000000000000ac       0x3f c:/mwsdk/tools/ba-elf-ba2-r36379/bin/../lib/gcc/ba-elf/4.7.4/../../../../ba-elf/lib/mcpu_jn51xx_sizeopt\libc.a(lib_a-memset.o)

.debug_aranges  0x0000000000000000       0xe0
 .debug_aranges
                0x0000000000000000       0x20 c:/mwsdk/tools/ba-elf-ba2-r36379/bin/../lib/gcc/ba-elf/4.7.4/../../../../ba-elf/lib/mcpu_jn51xx_sizeopt\libc.a(lib_a-memcmp.o)
 .debug_aranges
                0x0000000000000020       0x20 c:/mwsdk/tools/ba-elf-ba2-r36379/bin/../lib/gcc/ba-elf/4.7.4/../../../../ba-elf/lib/mcpu_jn51xx_sizeopt\libc.a(lib_a-memcpy.o)
 .debug_aranges
                0x0000000000000040       0x20 c:/mwsdk/tools/ba-elf-ba2-r36379/bin/../lib/gcc/ba-elf/4.7.4/../../../../ba-elf/lib/mcpu_jn51xx_sizeopt\libc.a(lib_a-memset.o)
 .debug_aranges
                0x0000000000000060       0x20 c:/mwsdk/tools/ba-elf-ba2-r36379/bin/../lib/gcc/ba-elf/4.7.4/mcpu_jn51xx_sizeopt\libgcc.a(__udivsi3.o)
 .debug_aranges
                0x0000000000000080       0x20 c:/mwsdk/tools/ba-elf-ba2-r36379/bin/../lib/gcc/ba-elf/4.7.4/mcpu_jn51xx_sizeopt\libgcc.a(__divsi3.o)
 .debug_aranges
                0x00000000000000a0       0x20 c:/mwsdk/tools/ba-elf-ba2-r36379/bin/../lib/gcc/ba-elf/4.7.4/mcpu_jn51xx_sizeopt\libgcc.a(__umodsi3.o)
 .debug_aranges
                0x00000000000000c0       0x20 c:/MWSDK/ChipLib/SW4063V1416/Components/Library\libBoot_JN516x.a(ExceptionHandler.o)

.debug_line     0x0000000000000000      0xe6e
 .debug_line    0x0000000000000000      0x154 c:/mwsdk/tools/ba-elf-ba2-r36379/bin/../lib/gcc/ba-elf/4.7.4/../../../../ba-elf/lib/mcpu_jn51xx_sizeopt\libc.a(lib_a-memcmp.o)
 .debug_line    0x0000000000000154      0x148 c:/mwsdk/tools/ba-elf-ba2-r36379/bin/../lib/gcc/ba-elf/4.7.4/../../../../ba-elf/lib/mcpu_jn51xx_sizeopt\libc.a(lib_a-memcpy.o)
 .debug_line    0x000000000000029c      0x13e c:/mwsdk/tools/ba-elf-ba2-r36379/bin/../lib/gcc/ba-elf/4.7.4/../../../../ba-elf/lib/mcpu_jn51xx_sizeopt\libc.a(lib_a-memset.o)
 .debug_line    0x00000000000003da      0x47b c:/mwsdk/tools/ba-elf-ba2-r36379/bin/../lib/gcc/ba-elf/4.7.4/mcpu_jn51xx_sizeopt\libgcc.a(__udivsi3.o)
 .debug_line    0x0000000000000855       0xbb c:/mwsdk/tools/ba-elf-ba2-r36379/bin/../lib/gcc/ba-elf/4.7.4/mcpu_jn51xx_sizeopt\libgcc.a(__divsi3.o)
 .debug_line    0x0000000000000910      0x3c7 c:/mwsdk/tools/ba-elf-ba2-r36379/bin/../lib/gcc/ba-elf/4.7.4/mcpu_jn51xx_sizeopt\libgcc.a(__umodsi3.o)
 .debug_line    0x0000000000000cd7      0x197 c:/MWSDK/ChipLib/SW4063V1416/Components/Library\libBoot_JN516x.a(ExceptionHandler.o)

.debug_str      0x0000000000000000      0x1bf
 .debug_str     0x0000000000000000      0x119 c:/mwsdk/tools/ba-elf-ba2-r36379/bin/../lib/gcc/ba-elf/4.7.4/../../../../ba-elf/lib/mcpu_jn51xx_sizeopt\libc.a(lib_a-memcmp.o)
                                        0x152 (size before relaxing)
 .debug_str     0x0000000000000119       0x5d c:/mwsdk/tools/ba-elf-ba2-r36379/bin/../lib/gcc/ba-elf/4.7.4/../../../../ba-elf/lib/mcpu_jn51xx_sizeopt\libc.a(lib_a-memcpy.o)
                                        0x166 (size before relaxing)
 .debug_str     0x0000000000000176       0x49 c:/mwsdk/tools/ba-elf-ba2-r36379/bin/../lib/gcc/ba-elf/4.7.4/../../../../ba-elf/lib/mcpu_jn51xx_sizeopt\libc.a(lib_a-memset.o)
                                        0x152 (size before relaxing)

.debug_frame    0x0000000000000000       0x60
 .debug_frame   0x0000000000000000       0x20 c:/mwsdk/tools/ba-elf-ba2-r36379/bin/../lib/gcc/ba-elf/4.7.4/../../../../ba-elf/lib/mcpu_jn51xx_sizeopt\libc.a(lib_a-memcmp.o)
 .debug_frame   0x0000000000000020       0x20 c:/mwsdk/tools/ba-elf-ba2-r36379/bin/../lib/gcc/ba-elf/4.7.4/../../../../ba-elf/lib/mcpu_jn51xx_sizeopt\libc.a(lib_a-memcpy.o)
 .debug_frame   0x0000000000000040       0x20 c:/mwsdk/tools/ba-elf-ba2-r36379/bin/../lib/gcc/ba-elf/4.7.4/../../../../ba-elf/lib/mcpu_jn51xx_sizeopt\libc.a(lib_a-memset.o)
